EXPORTS
    _Z10FloatToStrd @1
    _Z10FloatToStrdi @2
    _Z10moGetTicksv @3
    _Z11moNewEffect7moText0R14moPluginsArray @4
    _Z11moStopTimerv @5
    _Z12moPauseTimerv @6
    _Z12moStartTimerv @7
    _Z13moNewIODevice7moText0R22moIODevicePluginsArray @8
    _Z13moNewResource7moText0R22moResourcePluginsArray @9
    _Z13moSetDurationm @10
    _Z14moDeleteEffectP8moEffectR14moPluginsArray @11
    _Z14moNewPreEffect7moText0R17moPrePluginsArray @12
    _Z15moContinueTimerv @13
    _Z15moNewPostEffect7moText0R18moPostPluginsArray @14
    _Z16moDeleteIODeviceP10moIODeviceR22moIODevicePluginsArray @15
    _Z16moDeleteResourceP10moResourceR22moResourcePluginsArray @16
    _Z17moDeletePreEffectP11moPreEffectR17moPrePluginsArray @17
    _Z17moNewMasterEffect7moText0R20moMasterPluginsArray @18
    _Z18moDeletePostEffectP12moPostEffectR18moPostPluginsArray @19
    _Z18moGetTicksAbsolutev @20
    _Z20moDeleteMasterEffectP14moMasterEffectR20moMasterPluginsArray @21
    _Z6moRandi @22
    _Z6morandv @23
    _Z8HSVtoRGBsssPfS_S_ @24
    _Z8IntToStri @25
    _ZN10mo3dWidget11InteractionEv @26
    _ZN10mo3dWidget4DrawEv @27
    _ZN10mo3dWidget6UpdateEv @28
    _ZN10mo3dWidgetC1Ev @29
    _ZN10mo3dWidgetC2Ev @30
    _ZN10mo3dWidgetD0Ev @31
    _ZN10mo3dWidgetD1Ev @32
    _ZN10mo3dWidgetD2Ev @33
    _ZN10moAbstract11InitializedEv @34
    _ZN10moAbstract4InitEv @35
    _ZN10moAbstract6FinishEv @36
    _ZN10moAbstract7MODebugE @37 DATA
    _ZN10moAbstract8MODebug2E @38 DATA
    _ZN10moAbstractC1Ev @39
    _ZN10moAbstractC2Ev @40
    _ZN10moAbstractD0Ev @41
    _ZN10moAbstractD1Ev @42
    _ZN10moAbstractD2Ev @43
    _ZN10moFBOArray3AddERKP5moFBO @44
    _ZN10moFBOArray3GetEi @45
    _ZN10moFBOArray3SetEiRKP5moFBO @46
    _ZN10moFBOArray4CopyERKS_ @47
    _ZN10moFBOArray4CopyERKS_ii @48
    _ZN10moFBOArray4InitEiP5moFBO @49
    _ZN10moFBOArray5CountEv @50
    _ZN10moFBOArray5EmptyEv @51
    _ZN10moFBOArray6FinishEv @52
    _ZN10moFBOArray6InsertEiRKP5moFBO @53
    _ZN10moFBOArray6RemoveEi @54
    _ZN10moFBOArrayC1ERKS_ @55
    _ZN10moFBOArrayC1Ei @56
    _ZN10moFBOArrayC1Ev @57
    _ZN10moFBOArrayC2ERKS_ @58
    _ZN10moFBOArrayC2Ei @59
    _ZN10moFBOArrayC2Ev @60
    _ZN10moFBOArrayD0Ev @61
    _ZN10moFBOArrayD1Ev @62
    _ZN10moFBOArrayD2Ev @63
    _ZN10moFBOArrayaSERKS_ @64
    _ZN10moIODevice10GetNValuesEi @65
    _ZN10moIODevice10GetPointerEi @66
    _ZN10moIODevice8GetValueEi10moDataType @67
    _ZN10moIODevice8GetValueEii @68
    _ZN10moIODevice8SetValueEi6moData @69
    _ZN10moIODevice8SetValueEif @70
    _ZN10moIODevice8SetValueEii @71
    _ZN10moIODevice8SetValueEilPh @72
    _ZN10moIODeviceC1Ev @73
    _ZN10moIODeviceC2Ev @74
    _ZN10moIODeviceD0Ev @75
    _ZN10moIODeviceD1Ev @76
    _ZN10moIODeviceD2Ev @77
    _ZN10moIntArray3AddERKj @78
    _ZN10moIntArray3GetEi @79
    _ZN10moIntArray3SetEiRKj @80
    _ZN10moIntArray4CopyERKS_ @81
    _ZN10moIntArray4CopyERKS_ii @82
    _ZN10moIntArray4InitEij @83
    _ZN10moIntArray5CountEv @84
    _ZN10moIntArray5EmptyEv @85
    _ZN10moIntArray6FinishEv @86
    _ZN10moIntArray6InsertEiRKj @87
    _ZN10moIntArray6RemoveEi @88
    _ZN10moIntArrayC1ERKS_ @89
    _ZN10moIntArrayC1Ei @90
    _ZN10moIntArrayC1Ev @91
    _ZN10moIntArrayC2ERKS_ @92
    _ZN10moIntArrayC2Ei @93
    _ZN10moIntArrayC2Ev @94
    _ZN10moIntArrayD0Ev @95
    _ZN10moIntArrayD1Ev @96
    _ZN10moIntArrayD2Ev @97
    _ZN10moIntArrayaSERKS_ @98
    _ZN10moMobIndexD0Ev @99
    _ZN10moMobIndexD1Ev @100
    _ZN10moResource15GetResourceNameEv @101
    _ZN10moResource15GetResourceTypeEv @102
    _ZN10moResource15SetResourceTypeE14moResourceType @103
    _ZN10moResource4InitEv @104
    _ZN10moResource6FinishEv @105
    _ZN10moResourceC1Ev @106
    _ZN10moResourceC2Ev @107
    _ZN10moResourceD0Ev @108
    _ZN10moResourceD1Ev @109
    _ZN10moResourceD2Ev @110
    _ZN10moShaderCG10LoadShaderE7moText0S0_ @111
    _ZN10moShaderCG10StopShaderEv @112
    _ZN10moShaderCG11StartShaderEv @113
    _ZN10moShaderCG12CreateShaderE7moText0S0_ @114
    _ZN10moShaderCG14LoadFragShaderE7moText0 @115
    _ZN10moShaderCG14LoadVertShaderE7moText0 @116
    _ZN10moShaderCG16CreateFragShaderE7moText0 @117
    _ZN10moShaderCG16CreateVertShaderE7moText0 @118
    _ZN10moShaderCG16GetFragParameterE7moText0 @119
    _ZN10moShaderCG16GetVertParameterE7moText0 @120
    _ZN10moShaderCG17compileFragShaderE7moText0 @121
    _ZN10moShaderCG17compileVertShaderE7moText0 @122
    _ZN10moShaderCG4InitEv @123
    _ZN10moShaderCG6FinishEv @124
    _ZN10moShaderCGC1Ev @125
    _ZN10moShaderCGC2Ev @126
    _ZN10moShaderCGD0Ev @127
    _ZN10moShaderCGD1Ev @128
    _ZN10moShaderCGD2Ev @129
    _ZN10moTextHeap3GetEi @130
    _ZN10moTextHeap3PopEv @131
    _ZN10moTextHeap3SetEi7moText0 @132
    _ZN10moTextHeap4PushE7moText0 @133
    _ZN10moTextHeapC1Ei @134
    _ZN10moTextHeapC1Ev @135
    _ZN10moTextHeapC2Ei @136
    _ZN10moTextHeapC2Ev @137
    _ZN10moTextHeapD1Ev @138
    _ZN10moTextHeapD2Ev @139
    _ZN10moVideoOut4InitEv @140
    _ZN10moVideoOut6FinishEv @141
    _ZN10moVideoOutC1Ev @142
    _ZN10moVideoOutC2Ev @143
    _ZN10moVideoOutD0Ev @144
    _ZN10moVideoOutD1Ev @145
    _ZN10moVideoOutD2Ev @146
    _ZN11moBoolArray3AddERKb @147
    _ZN11moBoolArray3GetEi @148
    _ZN11moBoolArray3SetEiRKb @149
    _ZN11moBoolArray4CopyERKS_ @150
    _ZN11moBoolArray4CopyERKS_ii @151
    _ZN11moBoolArray4InitEib @152
    _ZN11moBoolArray5CountEv @153
    _ZN11moBoolArray5EmptyEv @154
    _ZN11moBoolArray6FinishEv @155
    _ZN11moBoolArray6InsertEiRKb @156
    _ZN11moBoolArray6RemoveEi @157
    _ZN11moBoolArrayC1ERKS_ @158
    _ZN11moBoolArrayC1Ei @159
    _ZN11moBoolArrayC1Ev @160
    _ZN11moBoolArrayC2ERKS_ @161
    _ZN11moBoolArrayC2Ei @162
    _ZN11moBoolArrayC2Ev @163
    _ZN11moBoolArrayD0Ev @164
    _ZN11moBoolArrayD1Ev @165
    _ZN11moBoolArrayD2Ev @166
    _ZN11moBoolArrayaSERKS_ @167
    _ZN11moConnector10AddMessageERK7moDatas @168
    _ZN11moConnector11GetMessagesEv @169
    _ZN11moConnector11GetMoldeoIdEv @170
    _ZN11moConnector11SetMoldeoIdEi @171
    _ZN11moConnector14GetConnectorIdEv @172
    _ZN11moConnector18GetMoldeoLabelNameEv @173
    _ZN11moConnector18SetMoldeoLabelNameE7moText0 @174
    _ZN11moConnector21GetConnectorLabelNameEv @175
    _ZN11moConnector4InitE7moText0i10moDataType @176
    _ZN11moConnector4InitE7moText0iP6moData @177
    _ZN11moConnector4InitE7moText0iP7moParam @178
    _ZN11moConnector4InitE7moText0iS0_ @179
    _ZN11moConnector4InitEv @180
    _ZN11moConnector6FinishEv @181
    _ZN11moConnector6UpdateEb @182
    _ZN11moConnector7AddDataERK6moData @183
    _ZN11moConnector7GetDataEv @184
    _ZN11moConnector7GetTypeEv @185
    _ZN11moConnector7NewDataEv @186
    _ZN11moConnector7SetDataEP6moData @187
    _ZN11moConnector7SetTypeE10moDataType @188
    _ZN11moConnector7UpdatedEv @189
    _ZN11moConnectorC1Ev @190
    _ZN11moConnectorC2Ev @191
    _ZN11moConnectorD0Ev @192
    _ZN11moConnectorD1Ev @193
    _ZN11moConnectorD2Ev @194
    _ZN11moDirectory11GetProtocolEv @195
    _ZN11moDirectory15GetCompletePathEv @196
    _ZN11moDirectory4FindE7moText0 @197
    _ZN11moDirectory4FindEi @198
    _ZN11moDirectory4InitEP13moFileManager @199
    _ZN11moDirectory4InitEv @200
    _ZN11moDirectory4OpenE7moText0S0_ @201
    _ZN11moDirectory6ExistsEv @202
    _ZN11moDirectory6FinishEv @203
    _ZN11moDirectory6UpdateEv @204
    _ZN11moDirectory7GetTypeEv @205
    _ZN11moDirectory8FindLastEv @206
    _ZN11moDirectory8FindNextEv @207
    _ZN11moDirectory8GetFilesEv @208
    _ZN11moDirectory8IsRemoteEv @209
    _ZN11moDirectory9FindFirstEv @210
    _ZN11moDirectory9GetStatusEv @211
    _ZN11moDirectoryC1E7moText0P13moFileManager @212
    _ZN11moDirectoryC1Ev @213
    _ZN11moDirectoryC2E7moText0P13moFileManager @214
    _ZN11moDirectoryC2Ev @215
    _ZN11moDirectoryD0Ev @216
    _ZN11moDirectoryD1Ev @217
    _ZN11moDirectoryD2Ev @218
    _ZN11moEventList3AddEP7moEvent @219
    _ZN11moEventList3AddEP9moMessage @220
    _ZN11moEventList3AddEiiiPh @221
    _ZN11moEventList3AddEiiiiiiPh @222
    _ZN11moEventList4InitEv @223
    _ZN11moEventList6DeleteEP7moEvent @224
    _ZN11moEventList6DeleteEP9moMessage @225
    _ZN11moEventList6FinishEv @226
    _ZN11moEventListC1Ev @227
    _ZN11moEventListC2Ev @228
    _ZN11moEventListD0Ev @229
    _ZN11moEventListD1Ev @230
    _ZN11moEventListD2Ev @231
    _ZN11moFBManager10AddTextureEjP9moTextureRj @232
    _ZN11moFBManager12BindScreenFBEv @233
    _ZN11moFBManager12UnbindAllFBOEv @234
    _ZN11moFBManager13AttachTextureEjP9moTexturej @235
    _ZN11moFBManager14SetDrawTextureEP9moTexturej @236
    _ZN11moFBManager14SetDrawTextureEj @237
    _ZN11moFBManager14SetReadTextureEP9moTexturej @238
    _ZN11moFBManager14SetReadTextureEj @239
    _ZN11moFBManager14UnbindScreenFBEv @240
    _ZN11moFBManager15SetDrawTexturesER14moTextureArray @241
    _ZN11moFBManager15SetDrawTexturesEjPj @242
    _ZN11moFBManager16GetScreenBuffersEv @243
    _ZN11moFBManager20SetDrawTextureByGLIdEjjjRK10moTexParamj @244
    _ZN11moFBManager20SetReadTextureByGLIdEjjjRK10moTexParamj @245
    _ZN11moFBManager21SetDrawTexturesByGLIdEjPjjjRK10moTexParam @246
    _ZN11moFBManager4InitEv @247
    _ZN11moFBManager6FinishEv @248
    _ZN11moFBManager6GetFBOEjjjj @249
    _ZN11moFBManager7BindFBOEj @250
    _ZN11moFBManager7BindFBOEjj @251
    _ZN11moFBManager7BindFBOEjjPj @252
    _ZN11moFBManager9CreateFBOEv @253
    _ZN11moFBManager9DeleteFBOEj @254
    _ZN11moFBManager9UnbindFBOEv @255
    _ZN11moFBManagerC1Ev @256
    _ZN11moFBManagerC2Ev @257
    _ZN11moFBManagerD0Ev @258
    _ZN11moFBManagerD1Ev @259
    _ZN11moFBManagerD2Ev @260
    _ZN11moFileArray3AddERKP6moFile @261
    _ZN11moFileArray3GetEi @262
    _ZN11moFileArray3SetEiRKP6moFile @263
    _ZN11moFileArray4CopyERKS_ @264
    _ZN11moFileArray4CopyERKS_ii @265
    _ZN11moFileArray4InitEiP6moFile @266
    _ZN11moFileArray5CountEv @267
    _ZN11moFileArray5EmptyEv @268
    _ZN11moFileArray6FinishEv @269
    _ZN11moFileArray6InsertEiRKP6moFile @270
    _ZN11moFileArray6RemoveEi @271
    _ZN11moFileArrayC1ERKS_ @272
    _ZN11moFileArrayC1Ei @273
    _ZN11moFileArrayC1Ev @274
    _ZN11moFileArrayC2ERKS_ @275
    _ZN11moFileArrayC2Ei @276
    _ZN11moFileArrayC2Ev @277
    _ZN11moFileArrayD0Ev @278
    _ZN11moFileArrayD1Ev @279
    _ZN11moFileArrayD2Ev @280
    _ZN11moFileArrayaSERKS_ @281
    _ZN11moGLManager11CheckErrorsE7moText0 @282
    _ZN11moGLManager11RectTextureEj @283
    _ZN11moGLManager11RestoreViewEv @284
    _ZN11moGLManager11SaveGLStateEv @285
    _ZN11moGLManager12SaveFBOStateEv @286
    _ZN11moGLManager13GetRenderModeEv @287
    _ZN11moGLManager13MipMapTextureEi @288
    _ZN11moGLManager13SetCurrentFBOEj @289
    _ZN11moGLManager13SetRenderModeEi @290
    _ZN11moGLManager14RestoreGLStateEv @291
    _ZN11moGLManager14SaveGLMatricesEv @292
    _ZN11moGLManager15BuildFPTexParamEjt @293
    _ZN11moGLManager15RestoreFBOStateEv @294
    _ZN11moGLManager15SaveFramebufferEv @295
    _ZN11moGLManager16SetMoldeoGLStateEv @296
    _ZN11moGLManager17RestoreGLMatricesEv @297
    _ZN11moGLManager17SetDefaultGLStateEv @298
    _ZN11moGLManager18RestoreFramebufferEv @299
    _ZN11moGLManager18SetPerspectiveViewEii @300
    _ZN11moGLManager19SetOrthographicViewEii @301
    _ZN11moGLManager20QueryGPUVendorStringEv @302
    _ZN11moGLManager20SetCurrentDrawBufferEi @303
    _ZN11moGLManager20SetCurrentReadBufferEi @304
    _ZN11moGLManager26SetFrameBufferObjectActiveEb @305
    _ZN11moGLManager27SetDefaultPixelStorageModesEv @306
    _ZN11moGLManager4InitEv @307
    _ZN11moGLManager6FinishEv @308
    _ZN11moGLManager8SaveViewEv @309
    _ZN11moGLManager9FPTextureEi @310
    _ZN11moGLManagerC1Ev @311
    _ZN11moGLManagerC2Ev @312
    _ZN11moGLManagerD0Ev @313
    _ZN11moGLManagerD1Ev @314
    _ZN11moGLManagerD2Ev @315
    _ZN11moGuiObject4InitEP17moResourceManager @316
    _ZN11moGuiObject6FinishEv @317
    _ZN11moGuiObjectC1Ev @318
    _ZN11moGuiObjectC2Ev @319
    _ZN11moGuiObjectD0Ev @320
    _ZN11moGuiObjectD1Ev @321
    _ZN11moGuiObjectD2Ev @322
    _ZN11moNetObjectC1Ev @323
    _ZN11moNetObjectC2Ev @324
    _ZN11moNetObjectD0Ev @325
    _ZN11moNetObjectD1Ev @326
    _ZN11moNetObjectD2Ev @327
    _ZN11moNetServer10HandleStopEv @328
    _ZN11moNetServer12HandleAcceptEv @329
    _ZN11moNetServer3RunEv @330
    _ZN11moNetServer4StopEv @331
    _ZN11moNetServerC1E7moText0S0_S0_ @332
    _ZN11moNetServerC2E7moText0S0_S0_ @333
    _ZN11moNetServerD0Ev @334
    _ZN11moNetServerD1Ev @335
    _ZN11moNetServerD2Ev @336
    _ZN11moPreConfig4InitEv @337
    _ZN11moPreConfig6FinishEv @338
    _ZN11moPreConfigC1ER14moValueIndexes @339
    _ZN11moPreConfigC1ER18moPreconfigIndexes @340
    _ZN11moPreConfigC1Ev @341
    _ZN11moPreConfigC2ER14moValueIndexes @342
    _ZN11moPreConfigC2ER18moPreconfigIndexes @343
    _ZN11moPreConfigC2Ev @344
    _ZN11moPreConfigD0Ev @345
    _ZN11moPreConfigD1Ev @346
    _ZN11moPreConfigD2Ev @347
    _ZN11moPreConfigaSERKS_ @348
    _ZN11moPreConfigixEi @349
    _ZN11moPreEffectC1Ev @350
    _ZN11moPreEffectC2Ev @351
    _ZN11moPreEffectD0Ev @352
    _ZN11moPreEffectD1Ev @353
    _ZN11moPreEffectD2Ev @354
    _ZN11moPrePlugin4LoadE7moText0 @355
    _ZN11moPrePlugin6CreateEv @356
    _ZN11moPrePlugin6UnloadEv @357
    _ZN11moPrePlugin7DestroyEP11moPreEffect @358
    _ZN11moPrePluginD0Ev @359
    _ZN11moPrePluginD1Ev @360
    _ZN11moResources3AddERKP10moResource @361
    _ZN11moResources3GetEi @362
    _ZN11moResources3SetEiRKP10moResource @363
    _ZN11moResources4CopyERKS_ @364
    _ZN11moResources4CopyERKS_ii @365
    _ZN11moResources4InitEiP10moResource @366
    _ZN11moResources5CountEv @367
    _ZN11moResources5EmptyEv @368
    _ZN11moResources6FinishEv @369
    _ZN11moResources6InsertEiRKP10moResource @370
    _ZN11moResources6RemoveEi @371
    _ZN11moResourcesC1ERKS_ @372
    _ZN11moResourcesC1Ei @373
    _ZN11moResourcesC1Ev @374
    _ZN11moResourcesC2ERKS_ @375
    _ZN11moResourcesC2Ei @376
    _ZN11moResourcesC2Ev @377
    _ZN11moResourcesD0Ev @378
    _ZN11moResourcesD1Ev @379
    _ZN11moResourcesD2Ev @380
    _ZN11moResourcesaSERKS_ @381
    _ZN11moSceneNode11InteractionEv @382
    _ZN11moSceneNode4DrawEP13moEffectStatej @383
    _ZN11moSceneNode4InitEv @384
    _ZN11moSceneNode6FinishEv @385
    _ZN11moSceneNode6UpdateEv @386
    _ZN11moSceneNode9GetParentEv @387
    _ZN11moSceneNode9SetParentEPS_ @388
    _ZN11moSceneNodeC1Ev @389
    _ZN11moSceneNodeC2Ev @390
    _ZN11moSceneNodeD0Ev @391
    _ZN11moSceneNodeD1Ev @392
    _ZN11moSceneNodeD2Ev @393
    _ZN11moTextArray3AddERK7moText0 @394
    _ZN11moTextArray3GetEi @395
    _ZN11moTextArray3SetEiRK7moText0 @396
    _ZN11moTextArray4CopyERKS_ @397
    _ZN11moTextArray4CopyERKS_ii @398
    _ZN11moTextArray4InitEi7moText0 @399
    _ZN11moTextArray5CountEv @400
    _ZN11moTextArray5EmptyEv @401
    _ZN11moTextArray6FinishEv @402
    _ZN11moTextArray6InsertEiRK7moText0 @403
    _ZN11moTextArray6RemoveEi @404
    _ZN11moTextArrayC1ERKS_ @405
    _ZN11moTextArrayC1Ei @406
    _ZN11moTextArrayC1Ev @407
    _ZN11moTextArrayC2ERKS_ @408
    _ZN11moTextArrayC2Ei @409
    _ZN11moTextArrayC2Ev @410
    _ZN11moTextArrayD0Ev @411
    _ZN11moTextArrayD1Ev @412
    _ZN11moTextArrayD2Ev @413
    _ZN11moTextArrayaSERKS_ @414
    _ZN11moValueBase10GetTypeStrEv @415
    _ZN11moValueBase11GetCodeNameEv @416
    _ZN11moValueBase11SetCodeNameE7moText0 @417
    _ZN11moValueBase7GetTypeEv @418
    _ZN11moValueBase7SetTypeE11moValueType @419
    _ZN11moValueBase8GetIndexEv @420
    _ZN11moValueBase8SetIndexEi @421
    _ZN11moValueBaseC1ERKS_ @422
    _ZN11moValueBaseC1Ev @423
    _ZN11moValueBaseC2ERKS_ @424
    _ZN11moValueBaseC2Ev @425
    _ZN11moValueBaseD0Ev @426
    _ZN11moValueBaseD1Ev @427
    _ZN11moValueBaseD2Ev @428
    _ZN11moValueBaseaSERKS_ @429
    _ZN12moConnection22GetDestinationMoldeoIdEv @430
    _ZN12moConnection22SetDestinationMoldeoIdEi @431
    _ZN12moConnection25GetDestinationConnectorIdEv @432
    _ZN12moConnection25SetDestinationConnectorIdEi @433
    _ZN12moConnection29GetDestinationMoldeoLabelNameEv @434
    _ZN12moConnection29SetDestinationMoldeoLabelNameE7moText0 @435
    _ZN12moConnection32GetDestinationConnectorLabelNameEv @436
    _ZN12moConnection32SetDestinationConnectorLabelNameE7moText0 @437
    _ZN12moConnectionC1E7moText0S0_ii @438
    _ZN12moConnectionC1Ev @439
    _ZN12moConnectionC2E7moText0S0_ii @440
    _ZN12moConnectionC2Ev @441
    _ZN12moConnectionD0Ev @442
    _ZN12moConnectionD1Ev @443
    _ZN12moConnectionD2Ev @444
    _ZN12moConnectors3AddERKP11moConnector @445
    _ZN12moConnectors3GetEi @446
    _ZN12moConnectors3SetEiRKP11moConnector @447
    _ZN12moConnectors4CopyERKS_ @448
    _ZN12moConnectors4CopyERKS_ii @449
    _ZN12moConnectors4InitEiP11moConnector @450
    _ZN12moConnectors5CountEv @451
    _ZN12moConnectors5EmptyEv @452
    _ZN12moConnectors6FinishEv @453
    _ZN12moConnectors6InsertEiRKP11moConnector @454
    _ZN12moConnectors6RemoveEi @455
    _ZN12moConnectorsC1ERKS_ @456
    _ZN12moConnectorsC1Ei @457
    _ZN12moConnectorsC1Ev @458
    _ZN12moConnectorsC2ERKS_ @459
    _ZN12moConnectorsC2Ei @460
    _ZN12moConnectorsC2Ev @461
    _ZN12moConnectorsD0Ev @462
    _ZN12moConnectorsD1Ev @463
    _ZN12moConnectorsD2Ev @464
    _ZN12moConnectorsaSERKS_ @465
    _ZN12moDeviceCodeC1Eiii @466
    _ZN12moDeviceCodeC1Ev @467
    _ZN12moDeviceCodeC2Eiii @468
    _ZN12moDeviceCodeC2Ev @469
    _ZN12moFloatArray3AddERKf @470
    _ZN12moFloatArray3GetEi @471
    _ZN12moFloatArray3SetEiRKf @472
    _ZN12moFloatArray4CopyERKS_ @473
    _ZN12moFloatArray4CopyERKS_ii @474
    _ZN12moFloatArray4InitEif @475
    _ZN12moFloatArray5CountEv @476
    _ZN12moFloatArray5EmptyEv @477
    _ZN12moFloatArray6FinishEv @478
    _ZN12moFloatArray6InsertEiRKf @479
    _ZN12moFloatArray6RemoveEi @480
    _ZN12moFloatArrayC1ERKS_ @481
    _ZN12moFloatArrayC1Ei @482
    _ZN12moFloatArrayC1Ev @483
    _ZN12moFloatArrayC2ERKS_ @484
    _ZN12moFloatArrayC2Ei @485
    _ZN12moFloatArrayC2Ev @486
    _ZN12moFloatArrayD0Ev @487
    _ZN12moFloatArrayD1Ev @488
    _ZN12moFloatArrayD2Ev @489
    _ZN12moFloatArrayaSERKS_ @490
    _ZN12moGUIManager10GetDisplayEv @491
    _ZN12moGUIManager10SetDisplayEPv @492
    _ZN12moGUIManager17DisplayInfoWindowEffffR11moTextArray @493
    _ZN12moGUIManager17GetOpWindowHandleEv @494
    _ZN12moGUIManager17SetOpWindowHandleEP6HWND__ @495
    _ZN12moGUIManager18GetVisWindowHandleEv @496
    _ZN12moGUIManager18SetVisWindowHandleEP6HWND__ @497
    _ZN12moGUIManager4InitEP6HWND__Pv @498
    _ZN12moGUIManager4InitEv @499
    _ZN12moGUIManager6FinishEv @500
    _ZN12moGUIManager9NewWindowEffffR10moTextHeap @501
    _ZN12moGUIManagerC1Ev @502
    _ZN12moGUIManagerC2Ev @503
    _ZN12moGUIManagerD0Ev @504
    _ZN12moGUIManagerD1Ev @505
    _ZN12moGUIManagerD2Ev @506
    _ZN12moIntegrate1IdE15RombergIntegralEiddPFddPvES1_ @507
    _ZN12moIntegrate1IfE15RombergIntegralEiffPFffPvES1_ @508
    _ZN12moLiveSystem11GetCodeNameEv @509
    _ZN12moLiveSystem11SetCodeNameE7moText0 @510
    _ZN12moLiveSystem13GetDeviceNameEv @511
    _ZN12moLiveSystem13GetVideoGraphEv @512
    _ZN12moLiveSystem13SetDeviceNameE7moText0 @513
    _ZN12moLiveSystem14GetBucketsPoolEv @514
    _ZN12moLiveSystem14GetVideoSampleEv @515
    _ZN12moLiveSystem16GetCaptureDeviceEv @516
    _ZN12moLiveSystem16SetCaptureDeviceE15moCaptureDevice @517
    _ZN12moLiveSystem4InitEv @518
    _ZN12moLiveSystem6FinishEv @519
    _ZN12moLiveSystem7GetTypeEv @520
    _ZN12moLiveSystem7SetTypeE16moLiveSystemType @521
    _ZN12moLiveSystemC1E15moCaptureDevice @522
    _ZN12moLiveSystemC1E7moText016moLiveSystemType @523
    _ZN12moLiveSystemC1Ev @524
    _ZN12moLiveSystemC2E15moCaptureDevice @525
    _ZN12moLiveSystemC2E7moText016moLiveSystemType @526
    _ZN12moLiveSystemC2Ev @527
    _ZN12moLiveSystemD0Ev @528
    _ZN12moLiveSystemD1Ev @529
    _ZN12moLiveSystemD2Ev @530
    _ZN12moNetManager4InitEv @531
    _ZN12moNetManager6FinishEv @532
    _ZN12moNetManagerC1Ev @533
    _ZN12moNetManagerC2Ev @534
    _ZN12moNetManagerD0Ev @535
    _ZN12moNetManagerD1Ev @536
    _ZN12moNetManagerD2Ev @537
    _ZN12moNetObjects3AddERKP11moNetObject @538
    _ZN12moNetObjects3GetEi @539
    _ZN12moNetObjects3SetEiRKP11moNetObject @540
    _ZN12moNetObjects4CopyERKS_ @541
    _ZN12moNetObjects4CopyERKS_ii @542
    _ZN12moNetObjects4InitEiP11moNetObject @543
    _ZN12moNetObjects5CountEv @544
    _ZN12moNetObjects5EmptyEv @545
    _ZN12moNetObjects6FinishEv @546
    _ZN12moNetObjects6InsertEiRKP11moNetObject @547
    _ZN12moNetObjects6RemoveEi @548
    _ZN12moNetObjectsC1ERKS_ @549
    _ZN12moNetObjectsC1Ei @550
    _ZN12moNetObjectsC1Ev @551
    _ZN12moNetObjectsC2ERKS_ @552
    _ZN12moNetObjectsC2Ei @553
    _ZN12moNetObjectsC2Ev @554
    _ZN12moNetObjectsD0Ev @555
    _ZN12moNetObjectsD1Ev @556
    _ZN12moNetObjectsD2Ev @557
    _ZN12moNetObjectsaSERKS_ @558
    _ZN12moPostEffectC1Ev @559
    _ZN12moPostEffectC2Ev @560
    _ZN12moPostEffectD0Ev @561
    _ZN12moPostEffectD1Ev @562
    _ZN12moPostEffectD2Ev @563
    _ZN12moPostPlugin4LoadE7moText0 @564
    _ZN12moPostPlugin6CreateEv @565
    _ZN12moPostPlugin6UnloadEv @566
    _ZN12moPostPlugin7DestroyEP12moPostEffect @567
    _ZN12moPreConfigs3AddERK11moPreConfig @568
    _ZN12moPreConfigs3GetEi @569
    _ZN12moPreConfigs3SetEiRK11moPreConfig @570
    _ZN12moPreConfigs4CopyERKS_ @571
    _ZN12moPreConfigs4CopyERKS_ii @572
    _ZN12moPreConfigs4InitEi11moPreConfig @573
    _ZN12moPreConfigs5CountEv @574
    _ZN12moPreConfigs5EmptyEv @575
    _ZN12moPreConfigs6FinishEv @576
    _ZN12moPreConfigs6InsertEiRK11moPreConfig @577
    _ZN12moPreConfigs6RemoveEi @578
    _ZN12moPreConfigsC1ERKS_ @579
    _ZN12moPreConfigsC1Ei @580
    _ZN12moPreConfigsC1Ev @581
    _ZN12moPreConfigsC2ERKS_ @582
    _ZN12moPreConfigsC2Ei @583
    _ZN12moPreConfigsC2Ev @584
    _ZN12moPreConfigsD0Ev @585
    _ZN12moPreConfigsD1Ev @586
    _ZN12moPreConfigsD2Ev @587
    _ZN12moPreConfigsaSERKS_ @588
    _ZN12moQuaternionIdE1WEv @589
    _ZN12moQuaternionIdE1XEv @590
    _ZN12moQuaternionIdE1YEv @591
    _ZN12moQuaternionIdE1ZEv @592
    _ZN12moQuaternionIdE4ZEROE @593 DATA
    _ZN12moQuaternionIdE8IDENTITYE @594 DATA
    _ZN12moQuaternionIdE8ms_iNextE @595 DATA
    _ZN12moQuaternionIdE9NormalizeEv @596
    _ZN12moQuaternionIdEaSERKS0_ @597
    _ZN12moQuaternionIdEcvPdEv @598
    _ZN12moQuaternionIdEdVEd @599
    _ZN12moQuaternionIdEixEi @600
    _ZN12moQuaternionIdEmIERKS0_ @601
    _ZN12moQuaternionIdEmLEd @602
    _ZN12moQuaternionIdEpLERKS0_ @603
    _ZN12moQuaternionIfE1WEv @604
    _ZN12moQuaternionIfE1XEv @605
    _ZN12moQuaternionIfE1YEv @606
    _ZN12moQuaternionIfE1ZEv @607
    _ZN12moQuaternionIfE4ZEROE @608 DATA
    _ZN12moQuaternionIfE8IDENTITYE @609 DATA
    _ZN12moQuaternionIfE8ms_iNextE @610 DATA
    _ZN12moQuaternionIfE9NormalizeEv @611
    _ZN12moQuaternionIfEaSERKS0_ @612
    _ZN12moQuaternionIfEcvPfEv @613
    _ZN12moQuaternionIfEdVEf @614
    _ZN12moQuaternionIfEixEi @615
    _ZN12moQuaternionIfEmIERKS0_ @616
    _ZN12moQuaternionIfEmLEf @617
    _ZN12moQuaternionIfEpLERKS0_ @618
    _ZN12moShaderGLSL10LoadShaderE7moText0S0_ @619
    _ZN12moShaderGLSL10StopShaderEv @620
    _ZN12moShaderGLSL11GetAttribIDE7moText0 @621
    _ZN12moShaderGLSL11StartShaderEv @622
    _ZN12moShaderGLSL11linkProgramEv @623
    _ZN12moShaderGLSL12CreateShaderE7moText0S0_ @624
    _ZN12moShaderGLSL12GetUniformIDE7moText0 @625
    _ZN12moShaderGLSL12printInfoLogEj @626
    _ZN12moShaderGLSL14LoadFragShaderE7moText0 @627
    _ZN12moShaderGLSL14LoadVertShaderE7moText0 @628
    _ZN12moShaderGLSL16CreateFragShaderE7moText0 @629
    _ZN12moShaderGLSL16CreateVertShaderE7moText0 @630
    _ZN12moShaderGLSL17compileFragShaderE7moText0 @631
    _ZN12moShaderGLSL17compileVertShaderE7moText0 @632
    _ZN12moShaderGLSL18PrintFragShaderLogEv @633
    _ZN12moShaderGLSL18PrintVertShaderLogEv @634
    _ZN12moShaderGLSL4InitEv @635
    _ZN12moShaderGLSL6FinishEv @636
    _ZN12moShaderGLSLC1Ev @637
    _ZN12moShaderGLSLC2Ev @638
    _ZN12moShaderGLSLD0Ev @639
    _ZN12moShaderGLSLD1Ev @640
    _ZN12moShaderGLSLD2Ev @641
    _ZN12moSoundArray3AddERKP7moSound @642
    _ZN12moSoundArray3GetEi @643
    _ZN12moSoundArray3SetEiRKP7moSound @644
    _ZN12moSoundArray4CopyERKS_ @645
    _ZN12moSoundArray4CopyERKS_ii @646
    _ZN12moSoundArray4InitEiP7moSound @647
    _ZN12moSoundArray5CountEv @648
    _ZN12moSoundArray5EmptyEv @649
    _ZN12moSoundArray6FinishEv @650
    _ZN12moSoundArray6InsertEiRKP7moSound @651
    _ZN12moSoundArray6RemoveEi @652
    _ZN12moSoundArrayC1ERKS_ @653
    _ZN12moSoundArrayC1Ei @654
    _ZN12moSoundArrayC1Ev @655
    _ZN12moSoundArrayC2ERKS_ @656
    _ZN12moSoundArrayC2Ei @657
    _ZN12moSoundArrayC2Ev @658
    _ZN12moSoundArrayD0Ev @659
    _ZN12moSoundArrayD1Ev @660
    _ZN12moSoundArrayD2Ev @661
    _ZN12moSoundArrayaSERKS_ @662
    _ZN12moValueBases3AddERK11moValueBase @663
    _ZN12moValueBases3GetEi @664
    _ZN12moValueBases3SetEiRK11moValueBase @665
    _ZN12moValueBases4CopyERKS_ @666
    _ZN12moValueBases4CopyERKS_ii @667
    _ZN12moValueBases4InitEi11moValueBase @668
    _ZN12moValueBases5CountEv @669
    _ZN12moValueBases5EmptyEv @670
    _ZN12moValueBases6FinishEv @671
    _ZN12moValueBases6InsertEiRK11moValueBase @672
    _ZN12moValueBases6RemoveEi @673
    _ZN12moValueBasesC1ERKS_ @674
    _ZN12moValueBasesC1Ei @675
    _ZN12moValueBasesC1Ev @676
    _ZN12moValueBasesC2ERKS_ @677
    _ZN12moValueBasesC2Ei @678
    _ZN12moValueBasesC2Ev @679
    _ZN12moValueBasesD0Ev @680
    _ZN12moValueBasesD1Ev @681
    _ZN12moValueBasesD2Ev @682
    _ZN12moValueBasesaSERKS_ @683
    _ZN12moVideoFrame4InitE7moText0Pv @684
    _ZN12moVideoFrame4InitEv @685
    _ZN12moVideoFrame6FinishEv @686
    _ZN12moVideoFrameC1Ev @687
    _ZN12moVideoFrameC2Ev @688
    _ZN12moVideoFrameD0Ev @689
    _ZN12moVideoFrameD1Ev @690
    _ZN12moVideoFrameD2Ev @691
    _ZN12moVideoGraph11FinishGraphEv @692
    _ZN12moVideoGraph11StateToTextE13moStreamState @693
    _ZN12moVideoGraph12GetVideoModeEv @694
    _ZN12moVideoGraph14GetVideoFormatEv @695
    _ZN12moVideoGraph8GetStateEv @696
    _ZN12moVideoGraphC1Ev @697
    _ZN12moVideoGraphC2Ev @698
    _ZN12moVideoGraphD0Ev @699
    _ZN12moVideoGraphD1Ev @700
    _ZN12moVideoGraphD2Ev @701
    _ZN13moBucketsPool14GetEmptyBucketEv @702
    _ZN13moBucketsPool14RetreiveBucketEv @703
    _ZN13moBucketsPool15GetActualBucketEv @704
    _ZN13moBucketsPool15RetreivedBucketEv @705
    _ZN13moBucketsPool22DestroyRetreivedBucketEv @706
    _ZN13moBucketsPool6IsFullEv @707
    _ZN13moBucketsPool7IsEmptyEv @708
    _ZN13moBucketsPool9AddBucketEP8moBucket @709
    _ZN13moBucketsPool9AddBucketElPh @710
    _ZN13moBucketsPoolC1Ev @711
    _ZN13moBucketsPoolC2Ev @712
    _ZN13moBucketsPoolD0Ev @713
    _ZN13moBucketsPoolD1Ev @714
    _ZN13moBucketsPoolD2Ev @715
    _ZN13moColorMatrix10XFormPointERfS0_S0_ @716
    _ZN13moColorMatrix10ZeroMatrixEv @717
    _ZN13moColorMatrix14ApplyChgMatrixEv @718
    _ZN13moColorMatrix14IdentityMatrixEv @719
    _ZN13moColorMatrix15SetZShearMatrixEff @720
    _ZN13moColorMatrix16SetXRotateMatrixEff @721
    _ZN13moColorMatrix16SetYRotateMatrixEff @722
    _ZN13moColorMatrix16SetZRotateMatrixEff @723
    _ZN13moColorMatrix4CopyERS_ @724
    _ZN13moColorMatrix4InitEv @725
    _ZN13moColorMatrix6FinishEv @726
    _ZN13moColorMatrix8MultiplyERS_ @727
    _ZN13moColorMatrixC1Ev @728
    _ZN13moColorMatrixC2Ev @729
    _ZN13moColorMatrixD0Ev @730
    _ZN13moColorMatrixD1Ev @731
    _ZN13moColorMatrixD2Ev @732
    _ZN13moConnections3AddERKP12moConnection @733
    _ZN13moConnections3GetEi @734
    _ZN13moConnections3SetEiRKP12moConnection @735
    _ZN13moConnections4CopyERKS_ @736
    _ZN13moConnections4CopyERKS_ii @737
    _ZN13moConnections4InitEiP12moConnection @738
    _ZN13moConnections5CountEv @739
    _ZN13moConnections5EmptyEv @740
    _ZN13moConnections6FinishEv @741
    _ZN13moConnections6InsertEiRKP12moConnection @742
    _ZN13moConnections6RemoveEi @743
    _ZN13moConnectionsC1ERKS_ @744
    _ZN13moConnectionsC1Ei @745
    _ZN13moConnectionsC1Ev @746
    _ZN13moConnectionsC2ERKS_ @747
    _ZN13moConnectionsC2Ei @748
    _ZN13moConnectionsC2Ev @749
    _ZN13moConnectionsD0Ev @750
    _ZN13moConnectionsD1Ev @751
    _ZN13moConnectionsD2Ev @752
    _ZN13moConnectionsaSERKS_ @753
    _ZN13moDataManager10GetSessionEv @754
    _ZN13moDataManager11GetDataPathEv @755
    _ZN13moDataManager20GetConsoleConfigNameEv @756
    _ZN13moDataManager21StartRecordingSessionEv @757
    _ZN13moDataManager22StartPlayinbackSessionEv @758
    _ZN13moDataManager4InitE7moText0S0_ @759
    _ZN13moDataManager4InitEv @760
    _ZN13moDataManager6FinishEv @761
    _ZN13moDataManagerC1Ev @762
    _ZN13moDataManagerC2Ev @763
    _ZN13moDataManagerD0Ev @764
    _ZN13moDataManagerD1Ev @765
    _ZN13moDataManagerD2Ev @766
    _ZN13moDataSession10RecordLiveEP17moResourceManager @767
    _ZN13moDataSession10SaveToFileE7moText0 @768
    _ZN13moDataSession11AddEventKeyEP21moDataSessionEventKey @769
    _ZN13moDataSession12LoadFromFileE7moText0 @770
    _ZN13moDataSession3SetE7moText0P19moDataSessionConfig17moDataSessionMode23moDataSessionRecordMode25moDataSessionPlaybackMode @771
    _ZN13moDataSession6AddKeyEP16moDataSessionKey @772
    _ZN13moDataSession6RecordEv @773
    _ZN13moDataSession8PlaybackEv @774
    _ZN13moDataSessionC1Ev @775
    _ZN13moDataSessionC2Ev @776
    _ZN13moDataSessionD0Ev @777
    _ZN13moDataSessionD1Ev @778
    _ZN13moDataSessionD2Ev @779
    _ZN13moEffectState4InitEa @780
    _ZN13moEffectState4InitEv @781
    _ZN13moEffectState7CSV2RGBEv @782
    _ZN13moEffectStateC1Ev @783
    _ZN13moEffectStateC2Ev @784
    _ZN13moEffectStateD0Ev @785
    _ZN13moEffectStateD1Ev @786
    _ZN13moEffectStateD2Ev @787
    _ZN13moEventPacket11ClearPacketEv @788
    _ZN13moEventPacket11ReadyToSendEv @789
    _ZN13moEventPacket8AddEventEP7moEvent @790
    _ZN13moEventPacketC1Efi @791
    _ZN13moEventPacketC2Efi @792
    _ZN13moEventPacketD0Ev @793
    _ZN13moEventPacketD1Ev @794
    _ZN13moEventPacketD2Ev @795
    _ZN13moFileManager10FileExistsE7moText0 @796
    _ZN13moFileManager10GetExePathEv @797
    _ZN13moFileManager11GetWorkPathEv @798
    _ZN13moFileManager12GetDirectoryE7moText0 @799
    _ZN13moFileManager15DirectoryExistsE7moText0 @800
    _ZN13moFileManager16CreateDirectoryAE11moDirectory @801
    _ZN13moFileManager4InitEv @802
    _ZN13moFileManager4LoadE7moText0j @803
    _ZN13moFileManager4OpenE7moText0j @804
    _ZN13moFileManager6FinishEv @805
    _ZN13moFileManager7GetFileE7moText0 @806
    _ZN13moFileManager9CopyFileAE7moText0S0_ @807
    _ZN13moFileManagerC1Ev @808
    _ZN13moFileManagerC2Ev @809
    _ZN13moFileManagerD0Ev @810
    _ZN13moFileManagerD1Ev @811
    _ZN13moFileManagerD2Ev @812
    _ZN13moFontManager11GetFontTypeE7moText0 @813
    _ZN13moFontManager4InitEv @814
    _ZN13moFontManager6FinishEv @815
    _ZN13moFontManager7AddFontE7moText010moFontTypef @816
    _ZN13moFontManager7AddFontE7moText0S0_f @817
    _ZN13moFontManager7AddFontEP6moFont @818
    _ZN13moFontManager7GetFontE7moText0b10moFontTypef @819
    _ZN13moFontManager7GetFontER7moValueb @820
    _ZN13moFontManager7GetFontEi @821
    _ZN13moFontManager8GetFontsEv @822
    _ZN13moFontManager8LoadFontE7moText010moFontTypef @823
    _ZN13moFontManagerC1Ev @824
    _ZN13moFontManagerC2Ev @825
    _ZN13moFontManagerD0Ev @826
    _ZN13moFontManagerD1Ev @827
    _ZN13moFontManagerD2Ev @828
    _ZN13moGsFramework16AddCaptureDeviceER15moCaptureDevice @829
    _ZN13moGsFramework18CheckCaptureDeviceEi @830
    _ZN13moGsFramework18LoadCaptureDevicesEv @831
    _ZN13moGsFramework20UpdateCaptureDevicesEv @832
    _ZN13moGsFrameworkC1Ev @833
    _ZN13moGsFrameworkC2Ev @834
    _ZN13moGsFrameworkD0Ev @835
    _ZN13moGsFrameworkD1Ev @836
    _ZN13moGsFrameworkD2Ev @837
    _ZN13moLiveSystems15LoadLiveSystemsEP16moCaptureDevices @838
    _ZN13moLiveSystems17GetVideoFrameworkEv @839
    _ZN13moLiveSystems17UnloadLiveSystemsEv @840
    _ZN13moLiveSystems17UpdateLiveSystemsEv @841
    _ZN13moLiveSystems9GetStatusEi @842
    _ZN13moLiveSystemsC1Ev @843
    _ZN13moLiveSystemsC2Ev @844
    _ZN13moLiveSystemsD0Ev @845
    _ZN13moLiveSystemsD1Ev @846
    _ZN13moLiveSystemsD2Ev @847
    _ZN13moLuaDebugger11FinaliseDBGEv @848
    _ZN13moLuaDebugger12InitaliseDBGEP10moTextHeap @849
    _ZN13moLuaDebugger12SetHooksFlagEi @850
    _ZN13moLuaDebugger8ErrorRunEi @851
    _ZN13moLuaDebuggerC1ER19moLuaVirtualMachine @852
    _ZN13moLuaDebuggerC2ER19moLuaVirtualMachine @853
    _ZN13moLuaDebuggerD0Ev @854
    _ZN13moLuaDebuggerD1Ev @855
    _ZN13moLuaDebuggerD2Ev @856
    _ZN13moMathManager11AddFunctionERK7moText0j @857
    _ZN13moMathManager11GetFunctionEj @858
    _ZN13moMathManager12EvalFunctionEjd @859
    _ZN13moMathManager12EvalFunctionEjdd @860
    _ZN13moMathManager12EvalFunctionEjddd @861
    _ZN13moMathManager14GetFunctionIdxERK7moText0 @862
    _ZN13moMathManager16SetFunctionParamEjd @863
    _ZN13moMathManager16SetFunctionParamEjdd @864
    _ZN13moMathManager16SetFunctionParamEjddd @865
    _ZN13moMathManager4InitEv @866
    _ZN13moMathManager6FinishEv @867
    _ZN13moMathManager6mathfdE @868 DATA
    _ZN13moMathManagerC1Ev @869
    _ZN13moMathManagerC2Ev @870
    _ZN13moMathManagerD0Ev @871
    _ZN13moMathManagerD1Ev @872
    _ZN13moMathManagerD2Ev @873
    _ZN13moPolynomial1IdED0Ev @874
    _ZN13moPolynomial1IdED1Ev @875
    _ZN13moPolynomial1IfED0Ev @876
    _ZN13moPolynomial1IfED1Ev @877
    _ZN13moRenderClips3AddERKP12moRenderClip @878
    _ZN13moRenderClips3GetEi @879
    _ZN13moRenderClips3SetEiRKP12moRenderClip @880
    _ZN13moRenderClips4CopyERKS_ @881
    _ZN13moRenderClips4CopyERKS_ii @882
    _ZN13moRenderClips4InitEiP12moRenderClip @883
    _ZN13moRenderClips5CountEv @884
    _ZN13moRenderClips5EmptyEv @885
    _ZN13moRenderClips6FinishEv @886
    _ZN13moRenderClips6InsertEiRKP12moRenderClip @887
    _ZN13moRenderClips6RemoveEi @888
    _ZN13moRenderClipsC1ERKS_ @889
    _ZN13moRenderClipsC1Ei @890
    _ZN13moRenderClipsC1Ev @891
    _ZN13moRenderClipsC2ERKS_ @892
    _ZN13moRenderClipsC2Ei @893
    _ZN13moRenderClipsC2Ev @894
    _ZN13moRenderClipsD0Ev @895
    _ZN13moRenderClipsD1Ev @896
    _ZN13moRenderClipsD2Ev @897
    _ZN13moRenderClipsaSERKS_ @898
    _ZN13moSceneEffect11InteractionEP17moIODeviceManager @899
    _ZN13moSceneEffect4DrawEP7moTempoP13moEffectState @900
    _ZN13moSceneEffect4InitEv @901
    _ZN13moSceneEffect6FinishEv @902
    _ZN13moSceneEffect9LoadCodesEP17moIODeviceManager @903
    _ZN13moSceneEffectC1EPc @904
    _ZN13moSceneEffectC1Ev @905
    _ZN13moSceneEffectC2EPc @906
    _ZN13moSceneEffectC2Ev @907
    _ZN13moSceneEffectD0Ev @908
    _ZN13moSceneEffectD1Ev @909
    _ZN13moSceneEffectD2Ev @910
    _ZN13moShaderArray3AddERKP8moShader @911
    _ZN13moShaderArray3GetEi @912
    _ZN13moShaderArray3SetEiRKP8moShader @913
    _ZN13moShaderArray4CopyERKS_ @914
    _ZN13moShaderArray4CopyERKS_ii @915
    _ZN13moShaderArray4InitEiP8moShader @916
    _ZN13moShaderArray5CountEv @917
    _ZN13moShaderArray5EmptyEv @918
    _ZN13moShaderArray6FinishEv @919
    _ZN13moShaderArray6InsertEiRKP8moShader @920
    _ZN13moShaderArray6RemoveEi @921
    _ZN13moShaderArrayC1ERKS_ @922
    _ZN13moShaderArrayC1Ei @923
    _ZN13moShaderArrayC1Ev @924
    _ZN13moShaderArrayC2ERKS_ @925
    _ZN13moShaderArrayC2Ei @926
    _ZN13moShaderArrayC2Ev @927
    _ZN13moShaderArrayD0Ev @928
    _ZN13moShaderArrayD1Ev @929
    _ZN13moShaderArrayD2Ev @930
    _ZN13moShaderArrayaSERKS_ @931
    _ZN13moSoundBufferD0Ev @932
    _ZN13moSoundBufferD1Ev @933
    _ZN13moSoundEffect13GetParameterFEiPf @934
    _ZN13moSoundEffect13SetParameterFEif @935
    _ZN13moSoundEffectD0Ev @936
    _ZN13moSoundEffectD1Ev @937
    _ZN13moTimeManager11MoldeoTimerE @938 DATA
    _ZN13moTimeManager11SetDurationEm @939
    _ZN13moTimeManager14ClearByTimerIdEl @940
    _ZN13moTimeManager15ClearByObjectIdEl @941
    _ZN13moTimeManager4InitEv @942
    _ZN13moTimeManager6FinishEv @943
    _ZN13moTimeManager8AddTimerEP7moTimer @944
    _ZN13moTimeManager8GetTicksEv @945
    _ZN13moTimeManager8NewTimerEv @946
    _ZN13moTimeManager9FixTimersEv @947
    _ZN13moTimeManagerC1Ev @948
    _ZN13moTimeManagerC2Ev @949
    _ZN13moTimeManagerD0Ev @950
    _ZN13moTimeManagerD1Ev @951
    _ZN13moTimeManagerD2Ev @952
    _ZN13moVideoBuffer10LoadImageAEPvj @953
    _ZN13moVideoBuffer4InitE7moText0S0_P17moResourceManagerjjjjjjiii @954
    _ZN13moVideoBuffer4InitEv @955
    _ZN13moVideoBuffer6FinishEv @956
    _ZN13moVideoBuffer8GetFrameEj @957
    _ZN13moVideoBufferC1Ev @958
    _ZN13moVideoBufferC2Ev @959
    _ZN13moVideoBufferD0Ev @960
    _ZN13moVideoBufferD1Ev @961
    _ZN13moVideoBufferD2Ev @962
    _ZN13moVideoFrames3AddERKP12moVideoFrame @963
    _ZN13moVideoFrames3GetEi @964
    _ZN13moVideoFrames3SetEiRKP12moVideoFrame @965
    _ZN13moVideoFrames4CopyERKS_ @966
    _ZN13moVideoFrames4CopyERKS_ii @967
    _ZN13moVideoFrames4InitEiP12moVideoFrame @968
    _ZN13moVideoFrames5CountEv @969
    _ZN13moVideoFrames5EmptyEv @970
    _ZN13moVideoFrames6FinishEv @971
    _ZN13moVideoFrames6InsertEiRKP12moVideoFrame @972
    _ZN13moVideoFrames6RemoveEi @973
    _ZN13moVideoFramesC1ERKS_ @974
    _ZN13moVideoFramesC1Ei @975
    _ZN13moVideoFramesC1Ev @976
    _ZN13moVideoFramesC2ERKS_ @977
    _ZN13moVideoFramesC2Ei @978
    _ZN13moVideoFramesC2Ev @979
    _ZN13moVideoFramesD0Ev @980
    _ZN13moVideoFramesD1Ev @981
    _ZN13moVideoFramesD2Ev @982
    _ZN13moVideoFramesaSERKS_ @983
    _ZN14moConsoleState4InitEv @984
    _ZN14moConsoleState6FinishEv @985
    _ZN14moConsoleStateC1Ev @986
    _ZN14moConsoleStateC2Ev @987
    _ZN14moConsoleStateD0Ev @988
    _ZN14moConsoleStateD1Ev @989
    _ZN14moConsoleStateD2Ev @990
    _ZN14moDataMessages3AddERK7moDatas @991
    _ZN14moDataMessages3GetEi @992
    _ZN14moDataMessages3SetEiRK7moDatas @993
    _ZN14moDataMessages4CopyERKS_ @994
    _ZN14moDataMessages4CopyERKS_ii @995
    _ZN14moDataMessages4InitEi7moDatas @996
    _ZN14moDataMessages5CountEv @997
    _ZN14moDataMessages5EmptyEv @998
    _ZN14moDataMessages6FinishEv @999
    _ZN14moDataMessages6InsertEiRK7moDatas @1000
    _ZN14moDataMessages6RemoveEi @1001
    _ZN14moDataMessagesC1ERKS_ @1002
    _ZN14moDataMessagesC1Ei @1003
    _ZN14moDataMessagesC1Ev @1004
    _ZN14moDataMessagesC2ERKS_ @1005
    _ZN14moDataMessagesC2Ei @1006
    _ZN14moDataMessagesC2Ev @1007
    _ZN14moDataMessagesD0Ev @1008
    _ZN14moDataMessagesD1Ev @1009
    _ZN14moDataMessagesD2Ev @1010
    _ZN14moDataMessagesaSERKS_ @1011
    _ZN14moEffectsArray3AddERKP8moEffect @1012
    _ZN14moEffectsArray3GetEi @1013
    _ZN14moEffectsArray3SetEiRKP8moEffect @1014
    _ZN14moEffectsArray4CopyERKS_ @1015
    _ZN14moEffectsArray4CopyERKS_ii @1016
    _ZN14moEffectsArray4InitEiP8moEffect @1017
    _ZN14moEffectsArray5CountEv @1018
    _ZN14moEffectsArray5EmptyEv @1019
    _ZN14moEffectsArray6FinishEv @1020
    _ZN14moEffectsArray6InsertEiRKP8moEffect @1021
    _ZN14moEffectsArray6RemoveEi @1022
    _ZN14moEffectsArrayC1ERKS_ @1023
    _ZN14moEffectsArrayC1Ei @1024
    _ZN14moEffectsArrayC1Ev @1025
    _ZN14moEffectsArrayC2ERKS_ @1026
    _ZN14moEffectsArrayC2Ei @1027
    _ZN14moEffectsArrayC2Ev @1028
    _ZN14moEffectsArrayD0Ev @1029
    _ZN14moEffectsArrayD1Ev @1030
    _ZN14moEffectsArrayD2Ev @1031
    _ZN14moEffectsArrayaSERKS_ @1032
    _ZN14moMasterEffect3SetEP15moEffectManagerP14moConsoleState @1033
    _ZN14moMasterEffect7PreInitEv @1034
    _ZN14moMasterEffectC1Ev @1035
    _ZN14moMasterEffectC2Ev @1036
    _ZN14moMasterEffectD0Ev @1037
    _ZN14moMasterEffectD1Ev @1038
    _ZN14moMasterEffectD2Ev @1039
    _ZN14moMasterPlugin4LoadE7moText0 @1040
    _ZN14moMasterPlugin6CreateEv @1041
    _ZN14moMasterPlugin6UnloadEv @1042
    _ZN14moMasterPlugin7DestroyEP14moMasterEffect @1043
    _ZN14moMasterPluginD0Ev @1044
    _ZN14moMasterPluginD1Ev @1045
    _ZN14moMathFunction13GetExpressionEv @1046
    _ZN14moMathFunction13SetExpressionERK7moText0 @1047
    _ZN14moMathFunction13SetParametersEdz @1048
    _ZN14moMathFunction15GetVariableNameEi @1049
    _ZN14moMathFunction16GetParameterNameEi @1050
    _ZN14moMathFunction16GetVariableCountEv @1051
    _ZN14moMathFunction16GetVariableValueEi @1052
    _ZN14moMathFunction17GetParameterCountEv @1053
    _ZN14moMathFunction17GetParameterValueEi @1054
    _ZN14moMathFunction4EvalEdz @1055
    _ZN14moMathFunction4InitERK7moText0 @1056
    _ZN14moMathFunction5DEvalEiz @1057
    _ZN14moMathFunction6FinishEv @1058
    _ZN14moMathFunctionC1Ev @1059
    _ZN14moMathFunctionC2Ev @1060
    _ZN14moMathFunctionD0Ev @1061
    _ZN14moMathFunctionD1Ev @1062
    _ZN14moMathFunctionD2Ev @1063
    _ZN14moMathFunctionclEdz @1064
    _ZN14moMoldeoObject10GetOutletsEv @1065
    _ZN14moMoldeoObject13GetDefinitionEP18moConfigDefinition @1066
    _ZN14moMoldeoObject13HandleReturnsER19moLuaVirtualMachinePKc @1067
    _ZN14moMoldeoObject13ScriptCallingER19moLuaVirtualMachinei @1068
    _ZN14moMoldeoObject13SetConfigNameE7moText0 @1069
    _ZN14moMoldeoObject14LoadConnectorsEv @1070
    _ZN14moMoldeoObject14LoadDefinitionEv @1071
    _ZN14moMoldeoObject16UnloadConnectorsEv @1072
    _ZN14moMoldeoObject18GetResourceManagerEv @1073
    _ZN14moMoldeoObject18SetResourceManagerEP17moResourceManager @1074
    _ZN14moMoldeoObject4InitEP17moResourceManager @1075
    _ZN14moMoldeoObject4InitEv @1076
    _ZN14moMoldeoObject4LoadEv @1077
    _ZN14moMoldeoObject5GetIdEv @1078
    _ZN14moMoldeoObject5SetIdEi @1079
    _ZN14moMoldeoObject6UpdateEP11moEventList @1080
    _ZN14moMoldeoObject7GetTypeEv @1081
    _ZN14moMoldeoObject7SetTypeE18moMoldeoObjectType @1082
    _ZN14moMoldeoObject9GetInletsEv @1083
    _ZN14moMoldeoObjectC1Ev @1084
    _ZN14moMoldeoObjectC2Ev @1085
    _ZN14moMoldeoObjectD0Ev @1086
    _ZN14moMoldeoObjectD1Ev @1087
    _ZN14moMoldeoObjectD2Ev @1088
    _ZN14moParamIndexes3AddERK12moParamIndex @1089
    _ZN14moParamIndexes3GetEi @1090
    _ZN14moParamIndexes3SetEiRK12moParamIndex @1091
    _ZN14moParamIndexes4CopyERKS_ @1092
    _ZN14moParamIndexes4CopyERKS_ii @1093
    _ZN14moParamIndexes4InitEi12moParamIndex @1094
    _ZN14moParamIndexes5CountEv @1095
    _ZN14moParamIndexes5EmptyEv @1096
    _ZN14moParamIndexes6FinishEv @1097
    _ZN14moParamIndexes6InsertEiRK12moParamIndex @1098
    _ZN14moParamIndexes6RemoveEi @1099
    _ZN14moParamIndexesC1ERKS_ @1100
    _ZN14moParamIndexesC1Ei @1101
    _ZN14moParamIndexesC1Ev @1102
    _ZN14moParamIndexesC2ERKS_ @1103
    _ZN14moParamIndexesC2Ei @1104
    _ZN14moParamIndexesC2Ev @1105
    _ZN14moParamIndexesD0Ev @1106
    _ZN14moParamIndexesD1Ev @1107
    _ZN14moParamIndexesD2Ev @1108
    _ZN14moParamIndexesaSERKS_ @1109
    _ZN14moPluginsArray3AddERKP8moPlugin @1110
    _ZN14moPluginsArray3GetEi @1111
    _ZN14moPluginsArray3SetEiRKP8moPlugin @1112
    _ZN14moPluginsArray4CopyERKS_ @1113
    _ZN14moPluginsArray4CopyERKS_ii @1114
    _ZN14moPluginsArray4InitEiP8moPlugin @1115
    _ZN14moPluginsArray5CountEv @1116
    _ZN14moPluginsArray5EmptyEv @1117
    _ZN14moPluginsArray6FinishEv @1118
    _ZN14moPluginsArray6InsertEiRKP8moPlugin @1119
    _ZN14moPluginsArray6RemoveEi @1120
    _ZN14moPluginsArrayC1ERKS_ @1121
    _ZN14moPluginsArrayC1Ei @1122
    _ZN14moPluginsArrayC1Ev @1123
    _ZN14moPluginsArrayC2ERKS_ @1124
    _ZN14moPluginsArrayC2Ei @1125
    _ZN14moPluginsArrayC2Ev @1126
    _ZN14moPluginsArrayD0Ev @1127
    _ZN14moPluginsArrayD1Ev @1128
    _ZN14moPluginsArrayD2Ev @1129
    _ZN14moPluginsArrayaSERKS_ @1130
    _ZN14moPresetParams3AddERK23moPresetParamDefinition @1131
    _ZN14moPresetParams3GetEi @1132
    _ZN14moPresetParams3SetEiRK23moPresetParamDefinition @1133
    _ZN14moPresetParams4CopyERKS_ @1134
    _ZN14moPresetParams4CopyERKS_ii @1135
    _ZN14moPresetParams4InitEi23moPresetParamDefinition @1136
    _ZN14moPresetParams5CountEv @1137
    _ZN14moPresetParams5EmptyEv @1138
    _ZN14moPresetParams6FinishEv @1139
    _ZN14moPresetParams6InsertEiRK23moPresetParamDefinition @1140
    _ZN14moPresetParams6RemoveEi @1141
    _ZN14moPresetParamsC1ERKS_ @1142
    _ZN14moPresetParamsC1Ei @1143
    _ZN14moPresetParamsC1Ev @1144
    _ZN14moPresetParamsC2ERKS_ @1145
    _ZN14moPresetParamsC2Ei @1146
    _ZN14moPresetParamsC2Ev @1147
    _ZN14moPresetParamsD0Ev @1148
    _ZN14moPresetParamsD1Ev @1149
    _ZN14moPresetParamsD2Ev @1150
    _ZN14moPresetParamsaSERKS_ @1151
    _ZN14moSingleCurve2IdE16GetSpeedWithDataEdPv @1152
    _ZN14moSingleCurve2IdEC1Edd @1153
    _ZN14moSingleCurve2IdEC2Edd @1154
    _ZN14moSingleCurve2IfE16GetSpeedWithDataEfPv @1155
    _ZN14moSingleCurve2IfEC1Eff @1156
    _ZN14moSingleCurve2IfEC2Eff @1157
    _ZN14moSingleCurve3IdE16GetSpeedWithDataEdPv @1158
    _ZN14moSingleCurve3IdEC1Edd @1159
    _ZN14moSingleCurve3IdEC2Edd @1160
    _ZN14moSingleCurve3IfE16GetSpeedWithDataEfPv @1161
    _ZN14moSingleCurve3IfEC1Eff @1162
    _ZN14moSingleCurve3IfEC2Eff @1163
    _ZN14moSoundManager10GetEffectsEv @1164
    _ZN14moSoundManager10GetSoundIdE7moText0 @1165
    _ZN14moSoundManager11CreateSoundE7moText011moSoundType12moSoundParam @1166
    _ZN14moSoundManager14GetTypeForFileE7moText0 @1167
    _ZN14moSoundManager4InitEv @1168
    _ZN14moSoundManager6FinishEv @1169
    _ZN14moSoundManager8GetSoundE7moText0 @1170
    _ZN14moSoundManager8GetSoundEj @1171
    _ZN14moSoundManagerC1Ev @1172
    _ZN14moSoundManagerC2Ev @1173
    _ZN14moSoundManagerD0Ev @1174
    _ZN14moSoundManagerD1Ev @1175
    _ZN14moSoundManagerD2Ev @1176
    _ZN14moTextureArray3AddERKP9moTexture @1177
    _ZN14moTextureArray3GetEi @1178
    _ZN14moTextureArray3SetEiRKP9moTexture @1179
    _ZN14moTextureArray4CopyERKS_ @1180
    _ZN14moTextureArray4CopyERKS_ii @1181
    _ZN14moTextureArray4InitEiP9moTexture @1182
    _ZN14moTextureArray5CountEv @1183
    _ZN14moTextureArray5EmptyEv @1184
    _ZN14moTextureArray6FinishEv @1185
    _ZN14moTextureArray6InsertEiRKP9moTexture @1186
    _ZN14moTextureArray6RemoveEi @1187
    _ZN14moTextureArrayC1ERKS_ @1188
    _ZN14moTextureArrayC1Ei @1189
    _ZN14moTextureArrayC1Ev @1190
    _ZN14moTextureArrayC2ERKS_ @1191
    _ZN14moTextureArrayC2Ei @1192
    _ZN14moTextureArrayC2Ev @1193
    _ZN14moTextureArrayD0Ev @1194
    _ZN14moTextureArrayD1Ev @1195
    _ZN14moTextureArrayD2Ev @1196
    _ZN14moTextureArrayaSERKS_ @1197
    _ZN14moTextureIndex10GetTextureEj @1198
    _ZN14moTextureIndex10ValidIndexEj @1199
    _ZN14moTextureIndex12LoadTexturesEP8moConfigjP16moTextureManager @1200
    _ZN14moTextureIndex3AddE7moText0P16moTextureManager @1201
    _ZN14moTextureIndex3AddEP9moTexture @1202
    _ZN14moTextureIndex4InitEP8moConfig16moParamReferenceP16moTextureManager @1203
    _ZN14moTextureIndex4InitEP8moConfigjP16moTextureManager @1204
    _ZN14moTextureIndex6FinishEv @1205
    _ZN14moTextureIndex7GetGLIdEj @1206
    _ZN14moTextureIndex7GetGLIdEjP7moTempo @1207
    _ZN14moTextureIndex7GetGLIdEjf @1208
    _ZN14moTextureIndex7GetGLIdEji @1209
    _ZN14moTextureIndex7GetTypeEj @1210
    _ZN14moTextureIndexD0Ev @1211
    _ZN14moTextureIndexD1Ev @1212
    _ZN14moTexturedGrid11SetTexCoordEiii @1213
    _ZN14moTexturedGrid12Set1QuadGridEv @1214
    _ZN14moTexturedGrid4DrawEiii @1215
    _ZN14moTexturedGrid4InitEP8moConfigj @1216
    _ZN14moTexturedGrid4InitEiiiPKfS1_ @1217
    _ZN14moTexturedGrid6FinishEv @1218
    _ZN14moTexturedGrid8GetPointEiiiRfS0_ @1219
    _ZN14moTexturedGridC1Ev @1220
    _ZN14moTexturedGridC2Ev @1221
    _ZN14moTexturedGridD0Ev @1222
    _ZN14moTexturedGridD1Ev @1223
    _ZN14moTexturedGridD2Ev @1224
    _ZN14moTexturedGridaSERKS_ @1225
    _ZN14moValueIndexes3AddERK12moValueIndex @1226
    _ZN14moValueIndexes3GetEi @1227
    _ZN14moValueIndexes3SetEiRK12moValueIndex @1228
    _ZN14moValueIndexes4CopyERKS_ @1229
    _ZN14moValueIndexes4CopyERKS_ii @1230
    _ZN14moValueIndexes4InitEi12moValueIndex @1231
    _ZN14moValueIndexes5CountEv @1232
    _ZN14moValueIndexes5EmptyEv @1233
    _ZN14moValueIndexes6FinishEv @1234
    _ZN14moValueIndexes6InsertEiRK12moValueIndex @1235
    _ZN14moValueIndexes6RemoveEi @1236
    _ZN14moValueIndexesC1ERKS_ @1237
    _ZN14moValueIndexesC1Ei @1238
    _ZN14moValueIndexesC1Ev @1239
    _ZN14moValueIndexesC2ERKS_ @1240
    _ZN14moValueIndexesC2Ei @1241
    _ZN14moValueIndexesC2Ev @1242
    _ZN14moValueIndexesD0Ev @1243
    _ZN14moValueIndexesD1Ev @1244
    _ZN14moValueIndexesD2Ev @1245
    _ZN14moValueIndexesaSERKS_ @1246
    _ZN14moVideoBuffers3AddERKP13moVideoBuffer @1247
    _ZN14moVideoBuffers3GetEi @1248
    _ZN14moVideoBuffers3SetEiRKP13moVideoBuffer @1249
    _ZN14moVideoBuffers4CopyERKS_ @1250
    _ZN14moVideoBuffers4CopyERKS_ii @1251
    _ZN14moVideoBuffers4InitEiP13moVideoBuffer @1252
    _ZN14moVideoBuffers5CountEv @1253
    _ZN14moVideoBuffers5EmptyEv @1254
    _ZN14moVideoBuffers6FinishEv @1255
    _ZN14moVideoBuffers6InsertEiRKP13moVideoBuffer @1256
    _ZN14moVideoBuffers6RemoveEi @1257
    _ZN14moVideoBuffersC1ERKS_ @1258
    _ZN14moVideoBuffersC1Ei @1259
    _ZN14moVideoBuffersC1Ev @1260
    _ZN14moVideoBuffersC2ERKS_ @1261
    _ZN14moVideoBuffersC2Ei @1262
    _ZN14moVideoBuffersC2Ev @1263
    _ZN14moVideoBuffersD0Ev @1264
    _ZN14moVideoBuffersD1Ev @1265
    _ZN14moVideoBuffersD2Ev @1266
    _ZN14moVideoBuffersaSERKS_ @1267
    _ZN14moVideoManager10GetPointerEi @1268
    _ZN14moVideoManager4InitEv @1269
    _ZN14moVideoManager6FinishEv @1270
    _ZN14moVideoManager6UpdateEP11moEventList @1271
    _ZN14moVideoManager7GetCodeE7moText0 @1272
    _ZN14moVideoManager8GetValueEi @1273
    _ZN14moVideoManager9GetStatusEi @1274
    _ZN14moVideoManager9SetStatusEia @1275
    _ZN14moVideoManagerC1Ev @1276
    _ZN14moVideoManagerC2Ev @1277
    _ZN14moVideoManagerD0Ev @1278
    _ZN14moVideoManagerD1Ev @1279
    _ZN14moVideoManagerD2Ev @1280
    _ZN15moCaptureDeviceC1ERKS_ @1281
    _ZN15moCaptureDeviceC1Ev @1282
    _ZN15moDBandedMatrixIdE10DeallocateEv @1283
    _ZN15moDBandedMatrixIdED0Ev @1284
    _ZN15moDBandedMatrixIdED1Ev @1285
    _ZN15moDBandedMatrixIfE10DeallocateEv @1286
    _ZN15moDBandedMatrixIfED0Ev @1287
    _ZN15moDBandedMatrixIfED1Ev @1288
    _ZN15moEffectFactoryD0Ev @1289
    _ZN15moEffectFactoryD1Ev @1290
    _ZN15moEffectFactoryD2Ev @1291
    _ZN15moEffectManager10AllEffectsEv @1292
    _ZN15moEffectManager10PreEffectsEv @1293
    _ZN15moEffectManager11GetEffectIdE7moText0 @1294
    _ZN15moEffectManager11PostEffectsEv @1295
    _ZN15moEffectManager12RemoveEffectEi18moMoldeoObjectType @1296
    _ZN15moEffectManager13MasterEffectsEv @1297
    _ZN15moEffectManager18GetEffectLabelNameEi @1298
    _ZN15moEffectManager3NewER15moMobDefinition @1299
    _ZN15moEffectManager4InitEv @1300
    _ZN15moEffectManager6FinishEv @1301
    _ZN15moEffectManager7EffectsEv @1302
    _ZN15moEffectManager9AddEffectEP8moEffect @1303
    _ZN15moEffectManager9NewEffectE7moText0S0_S0_18moMoldeoObjectTypeii @1304
    _ZN15moEffectManagerC1Ev @1305
    _ZN15moEffectManagerC2Ev @1306
    _ZN15moEffectManagerD0Ev @1307
    _ZN15moEffectManagerD1Ev @1308
    _ZN15moEffectManagerD2Ev @1309
    _ZN15moFilterManager4InitEv @1310
    _ZN15moFilterManager6FinishEv @1311
    _ZN15moFilterManagerC1Ev @1312
    _ZN15moFilterManagerC2Ev @1313
    _ZN15moFilterManagerD0Ev @1314
    _ZN15moFilterManagerD1Ev @1315
    _ZN15moFilterManagerD2Ev @1316
    _ZN15moMobDefinitionD0Ev @1317
    _ZN15moMobDefinitionD1Ev @1318
    _ZN15moMoldeoObjects3AddERKP14moMoldeoObject @1319
    _ZN15moMoldeoObjects3GetEi @1320
    _ZN15moMoldeoObjects3SetEiRKP14moMoldeoObject @1321
    _ZN15moMoldeoObjects4CopyERKS_ @1322
    _ZN15moMoldeoObjects4CopyERKS_ii @1323
    _ZN15moMoldeoObjects4InitEiP14moMoldeoObject @1324
    _ZN15moMoldeoObjects5CountEv @1325
    _ZN15moMoldeoObjects5EmptyEv @1326
    _ZN15moMoldeoObjects6FinishEv @1327
    _ZN15moMoldeoObjects6InsertEiRKP14moMoldeoObject @1328
    _ZN15moMoldeoObjects6RemoveEi @1329
    _ZN15moMoldeoObjectsC1ERKS_ @1330
    _ZN15moMoldeoObjectsC1Ei @1331
    _ZN15moMoldeoObjectsC1Ev @1332
    _ZN15moMoldeoObjectsC2ERKS_ @1333
    _ZN15moMoldeoObjectsC2Ei @1334
    _ZN15moMoldeoObjectsC2Ev @1335
    _ZN15moMoldeoObjectsD0Ev @1336
    _ZN15moMoldeoObjectsD1Ev @1337
    _ZN15moMoldeoObjectsD2Ev @1338
    _ZN15moMoldeoObjectsaSERKS_ @1339
    _ZN15moNetConnection10HandleReadEl @1340
    _ZN15moNetConnection11HandleWriteEv @1341
    _ZN15moNetConnection4StopEv @1342
    _ZN15moNetConnection5StartEv @1343
    _ZN15moNetConnection6SocketEv @1344
    _ZN15moNetConnectionC1EPv @1345
    _ZN15moNetConnectionC2EPv @1346
    _ZN15moNetConnectionD0Ev @1347
    _ZN15moNetConnectionD1Ev @1348
    _ZN15moNetConnectionD2Ev @1349
    _ZN15moRenderManager10SaveScreenEv @1350
    _ZN15moRenderManager11BeginUpdateEv @1351
    _ZN15moRenderManager11DrawTextureEii @1352
    _ZN15moRenderManager11DrawTextureEiii @1353
    _ZN15moRenderManager11ScreenWidthEv @1354
    _ZN15moRenderManager12ScreenHeightEv @1355
    _ZN15moRenderManager13EndDrawEffectEv @1356
    _ZN15moRenderManager13RenderTexGLIdEi @1357
    _ZN15moRenderManager15BeginDrawEffectEv @1358
    _ZN15moRenderManager15EndUpdateDeviceEv @1359
    _ZN15moRenderManager15EndUpdateObjectEv @1360
    _ZN15moRenderManager16ShadersSupportedEv @1361
    _ZN15moRenderManager17BeginUpdateDeviceEv @1362
    _ZN15moRenderManager17BeginUpdateObjectEv @1363
    _ZN15moRenderManager18SetRenderToTexModeE19moRenderManagerMode @1364
    _ZN15moRenderManager19CopyRenderToTextureEi @1365
    _ZN15moRenderManager20IsRenderToFBOEnabledEv @1366
    _ZN15moRenderManager21MultiTextureSupportedEv @1367
    _ZN15moRenderManager22GetOutputConfigurationEv @1368
    _ZN15moRenderManager22SetOutputConfigurationE27moRenderOutputConfiguration @1369
    _ZN15moRenderManager23RenderResEqualScreenResEv @1370
    _ZN15moRenderManager26FramebufferObjectSupportedEv @1371
    _ZN15moRenderManager4InitE19moRenderManagerModeiiii @1372
    _ZN15moRenderManager4LockEv @1373
    _ZN15moRenderManager6FinishEv @1374
    _ZN15moRenderManager6UnlockEv @1375
    _ZN15moRenderManager7EndDrawEv @1376
    _ZN15moRenderManager7SetViewEii @1377
    _ZN15moRenderManager9BeginDrawEv @1378
    _ZN15moRenderManager9EndUpdateEv @1379
    _ZN15moRenderManagerC1Ev @1380
    _ZN15moRenderManagerC2Ev @1381
    _ZN15moRenderManagerD0Ev @1382
    _ZN15moRenderManagerD1Ev @1383
    _ZN15moRenderManagerD2Ev @1384
    _ZN15moScriptManager19RegisterLunaClassesEv @1385
    _ZN15moScriptManager4InitEv @1386
    _ZN15moScriptManager5GetVMEv @1387
    _ZN15moScriptManager6FinishEv @1388
    _ZN15moScriptManager6GetDBGEv @1389
    _ZN15moScriptManagerC1Ev @1390
    _ZN15moScriptManagerC2Ev @1391
    _ZN15moScriptManagerD0Ev @1392
    _ZN15moScriptManagerD1Ev @1393
    _ZN15moScriptManagerD2Ev @1394
    _ZN15moShaderManager12DeleteShaderEi @1395
    _ZN15moShaderManager14GetShaderIndexE7moText0j @1396
    _ZN15moShaderManager4InitEv @1397
    _ZN15moShaderManager6FinishEv @1398
    _ZN15moShaderManager9AddShaderE7moText0 @1399
    _ZN15moShaderManager9AddShaderEj7moText0 @1400
    _ZN15moShaderManager9AddShaderEj7moText0S0_S0_14moTexturedGrid @1401
    _ZN15moShaderManagerC1Ev @1402
    _ZN15moShaderManagerC2Ev @1403
    _ZN15moShaderManagerD0Ev @1404
    _ZN15moShaderManagerD1Ev @1405
    _ZN15moTextureBuffer10GetTextureEj @1406
    _ZN15moTextureBuffer10LoadImageAE7moText0Pvi @1407
    _ZN15moTextureBuffer12ReleaseFrameEj @1408
    _ZN15moTextureBuffer12UpdateImagesEi @1409
    _ZN15moTextureBuffer13LoadCompletedEv @1410
    _ZN15moTextureBuffer15GetBufferLevelsEii @1411
    _ZN15moTextureBuffer4InitE7moText0S0_P17moResourceManager @1412
    _ZN15moTextureBuffer4InitEv @1413
    _ZN15moTextureBuffer6FinishEv @1414
    _ZN15moTextureBuffer8GetFrameEj @1415
    _ZN15moTextureBufferC1Ev @1416
    _ZN15moTextureBufferC2Ev @1417
    _ZN15moTextureBufferD0Ev @1418
    _ZN15moTextureBufferD1Ev @1419
    _ZN15moTextureBufferD2Ev @1420
    _ZN15moTextureFilter10BindSrcTexEP7moTempo @1421
    _ZN15moTextureFilter10BindSrcTexEf @1422
    _ZN15moTextureFilter10BindSrcTexEj @1423
    _ZN15moTextureFilter11BindDestFBOEv @1424
    _ZN15moTextureFilter11SetupShaderEiiP7moTempofP17moTextFilterParam @1425
    _ZN15moTextureFilter12UnbindSrcTexEv @1426
    _ZN15moTextureFilter13RestoreGLConfEv @1427
    _ZN15moTextureFilter13UnbindDestFBOEv @1428
    _ZN15moTextureFilter24CheckDestTexAttachStatusEv @1429
    _ZN15moTextureFilter4InitEP11moGLManagerP15moRenderManagerR14moTextureArrayS5_P8moShaderP17moTextFilterParam @1430
    _ZN15moTextureFilter5ApplyEP7moTempofP17moTextFilterParam @1431
    _ZN15moTextureFilter5ApplyEffP17moTextFilterParam @1432
    _ZN15moTextureFilter5ApplyEjfP17moTextFilterParam @1433
    _ZN15moTextureFilter6FinishEv @1434
    _ZN15moTextureFilter9SetGLConfEii @1435
    _ZN15moTextureFilterC1Ev @1436
    _ZN15moTextureFilterD0Ev @1437
    _ZN15moTextureFilterD1Ev @1438
    _ZN15moTextureFrames3AddERKP15moTextureMemory @1439
    _ZN15moTextureFrames3GetEi @1440
    _ZN15moTextureFrames3SetEiRKP15moTextureMemory @1441
    _ZN15moTextureFrames4CopyERKS_ @1442
    _ZN15moTextureFrames4CopyERKS_ii @1443
    _ZN15moTextureFrames4InitEiP15moTextureMemory @1444
    _ZN15moTextureFrames5CountEv @1445
    _ZN15moTextureFrames5EmptyEv @1446
    _ZN15moTextureFrames6FinishEv @1447
    _ZN15moTextureFrames6InsertEiRKP15moTextureMemory @1448
    _ZN15moTextureFrames6RemoveEi @1449
    _ZN15moTextureFramesC1ERKS_ @1450
    _ZN15moTextureFramesC1Ei @1451
    _ZN15moTextureFramesC1Ev @1452
    _ZN15moTextureFramesC2ERKS_ @1453
    _ZN15moTextureFramesC2Ei @1454
    _ZN15moTextureFramesC2Ev @1455
    _ZN15moTextureFramesD0Ev @1456
    _ZN15moTextureFramesD1Ev @1457
    _ZN15moTextureFramesD2Ev @1458
    _ZN15moTextureFramesaSERKS_ @1459
    _ZN15moTextureMemory12GetReferenceEv @1460
    _ZN15moTextureMemory14LoadFromBitmapEPv @1461
    _ZN15moTextureMemory15BuildFromBitmapEPv7moText0 @1462
    _ZN15moTextureMemory15BuildFromMemoryEv @1463
    _ZN15moTextureMemory16ReleaseReferenceEv @1464
    _ZN15moTextureMemory4InitE7moText0jP17moResourceManager10moTexParam @1465
    _ZN15moTextureMemory4InitE7moText0jP17moResourceManagerS0_Pv10moTexParam @1466
    _ZN15moTextureMemory6FinishEv @1467
    _ZN15moTextureMemoryC1Ev @1468
    _ZN15moTextureMemoryC2Ev @1469
    _ZN15moTextureMemoryD0Ev @1470
    _ZN15moTextureMemoryD1Ev @1471
    _ZN15moTextureMemoryD2Ev @1472
    _ZN15moTimerAbsolute11SetDurationEm @1473
    _ZN15moTimerAbsolute5StartEv @1474
    _ZN15moTimerAbsolute8DurationEv @1475
    _ZN15moVector2dArray3AddERKP9moVector2IdE @1476
    _ZN15moVector2dArray3GetEi @1477
    _ZN15moVector2dArray3SetEiRKP9moVector2IdE @1478
    _ZN15moVector2dArray4CopyERKS_ @1479
    _ZN15moVector2dArray4CopyERKS_ii @1480
    _ZN15moVector2dArray4InitEiP9moVector2IdE @1481
    _ZN15moVector2dArray5CountEv @1482
    _ZN15moVector2dArray5EmptyEv @1483
    _ZN15moVector2dArray6FinishEv @1484
    _ZN15moVector2dArray6InsertEiRKP9moVector2IdE @1485
    _ZN15moVector2dArray6RemoveEi @1486
    _ZN15moVector2dArrayC1ERKS_ @1487
    _ZN15moVector2dArrayC1Ei @1488
    _ZN15moVector2dArrayC1Ev @1489
    _ZN15moVector2dArrayC2ERKS_ @1490
    _ZN15moVector2dArrayC2Ei @1491
    _ZN15moVector2dArrayC2Ev @1492
    _ZN15moVector2dArrayD0Ev @1493
    _ZN15moVector2dArrayD1Ev @1494
    _ZN15moVector2dArrayD2Ev @1495
    _ZN15moVector2dArrayaSERKS_ @1496
    _ZN15moVector2fArray3AddERKP9moVector2IfE @1497
    _ZN15moVector2fArray3GetEi @1498
    _ZN15moVector2fArray3SetEiRKP9moVector2IfE @1499
    _ZN15moVector2fArray4CopyERKS_ @1500
    _ZN15moVector2fArray4CopyERKS_ii @1501
    _ZN15moVector2fArray4InitEiP9moVector2IfE @1502
    _ZN15moVector2fArray5CountEv @1503
    _ZN15moVector2fArray5EmptyEv @1504
    _ZN15moVector2fArray6FinishEv @1505
    _ZN15moVector2fArray6InsertEiRKP9moVector2IfE @1506
    _ZN15moVector2fArray6RemoveEi @1507
    _ZN15moVector2fArrayC1ERKS_ @1508
    _ZN15moVector2fArrayC1Ei @1509
    _ZN15moVector2fArrayC1Ev @1510
    _ZN15moVector2fArrayC2ERKS_ @1511
    _ZN15moVector2fArrayC2Ei @1512
    _ZN15moVector2fArrayC2Ev @1513
    _ZN15moVector2fArrayD0Ev @1514
    _ZN15moVector2fArrayD1Ev @1515
    _ZN15moVector2fArrayD2Ev @1516
    _ZN15moVector2fArrayaSERKS_ @1517
    _ZN15moVector3dArray3AddERKP9moVector3IdE @1518
    _ZN15moVector3dArray3GetEi @1519
    _ZN15moVector3dArray3SetEiRKP9moVector3IdE @1520
    _ZN15moVector3dArray4CopyERKS_ @1521
    _ZN15moVector3dArray4CopyERKS_ii @1522
    _ZN15moVector3dArray4InitEiP9moVector3IdE @1523
    _ZN15moVector3dArray5CountEv @1524
    _ZN15moVector3dArray5EmptyEv @1525
    _ZN15moVector3dArray6FinishEv @1526
    _ZN15moVector3dArray6InsertEiRKP9moVector3IdE @1527
    _ZN15moVector3dArray6RemoveEi @1528
    _ZN15moVector3dArrayC1ERKS_ @1529
    _ZN15moVector3dArrayC1Ei @1530
    _ZN15moVector3dArrayC1Ev @1531
    _ZN15moVector3dArrayC2ERKS_ @1532
    _ZN15moVector3dArrayC2Ei @1533
    _ZN15moVector3dArrayC2Ev @1534
    _ZN15moVector3dArrayD0Ev @1535
    _ZN15moVector3dArrayD1Ev @1536
    _ZN15moVector3dArrayD2Ev @1537
    _ZN15moVector3dArrayaSERKS_ @1538
    _ZN15moVector3fArray3AddERKP9moVector3IfE @1539
    _ZN15moVector3fArray3GetEi @1540
    _ZN15moVector3fArray3SetEiRKP9moVector3IfE @1541
    _ZN15moVector3fArray4CopyERKS_ @1542
    _ZN15moVector3fArray4CopyERKS_ii @1543
    _ZN15moVector3fArray4InitEiP9moVector3IfE @1544
    _ZN15moVector3fArray5CountEv @1545
    _ZN15moVector3fArray5EmptyEv @1546
    _ZN15moVector3fArray6FinishEv @1547
    _ZN15moVector3fArray6InsertEiRKP9moVector3IfE @1548
    _ZN15moVector3fArray6RemoveEi @1549
    _ZN15moVector3fArrayC1ERKS_ @1550
    _ZN15moVector3fArrayC1Ei @1551
    _ZN15moVector3fArrayC1Ev @1552
    _ZN15moVector3fArrayC2ERKS_ @1553
    _ZN15moVector3fArrayC2Ei @1554
    _ZN15moVector3fArrayC2Ev @1555
    _ZN15moVector3fArrayD0Ev @1556
    _ZN15moVector3fArrayD1Ev @1557
    _ZN15moVector3fArrayD2Ev @1558
    _ZN15moVector3fArrayaSERKS_ @1559
    _ZN15moVector4dArray3AddERKP9moVector4IdE @1560
    _ZN15moVector4dArray3GetEi @1561
    _ZN15moVector4dArray3SetEiRKP9moVector4IdE @1562
    _ZN15moVector4dArray4CopyERKS_ @1563
    _ZN15moVector4dArray4CopyERKS_ii @1564
    _ZN15moVector4dArray4InitEiP9moVector4IdE @1565
    _ZN15moVector4dArray5CountEv @1566
    _ZN15moVector4dArray5EmptyEv @1567
    _ZN15moVector4dArray6FinishEv @1568
    _ZN15moVector4dArray6InsertEiRKP9moVector4IdE @1569
    _ZN15moVector4dArray6RemoveEi @1570
    _ZN15moVector4dArrayC1ERKS_ @1571
    _ZN15moVector4dArrayC1Ei @1572
    _ZN15moVector4dArrayC1Ev @1573
    _ZN15moVector4dArrayC2ERKS_ @1574
    _ZN15moVector4dArrayC2Ei @1575
    _ZN15moVector4dArrayC2Ev @1576
    _ZN15moVector4dArrayD0Ev @1577
    _ZN15moVector4dArrayD1Ev @1578
    _ZN15moVector4dArrayD2Ev @1579
    _ZN15moVector4dArrayaSERKS_ @1580
    _ZN15moVector4fArray3AddERKP9moVector4IfE @1581
    _ZN15moVector4fArray3GetEi @1582
    _ZN15moVector4fArray3SetEiRKP9moVector4IfE @1583
    _ZN15moVector4fArray4CopyERKS_ @1584
    _ZN15moVector4fArray4CopyERKS_ii @1585
    _ZN15moVector4fArray4InitEiP9moVector4IfE @1586
    _ZN15moVector4fArray5CountEv @1587
    _ZN15moVector4fArray5EmptyEv @1588
    _ZN15moVector4fArray6FinishEv @1589
    _ZN15moVector4fArray6InsertEiRKP9moVector4IfE @1590
    _ZN15moVector4fArray6RemoveEi @1591
    _ZN15moVector4fArrayC1ERKS_ @1592
    _ZN15moVector4fArrayC1Ei @1593
    _ZN15moVector4fArrayC1Ev @1594
    _ZN15moVector4fArrayC2ERKS_ @1595
    _ZN15moVector4fArrayC2Ei @1596
    _ZN15moVector4fArrayC2Ev @1597
    _ZN15moVector4fArrayD0Ev @1598
    _ZN15moVector4fArrayD1Ev @1599
    _ZN15moVector4fArrayD2Ev @1600
    _ZN15moVector4fArrayaSERKS_ @1601
    _ZN16mo3dModelManager10Get3dModelE7moText0 @1602
    _ZN16mo3dModelManager10MoldeoLogoEl @1603
    _ZN16mo3dModelManager11Load3dModelE7moText0S0_ @1604
    _ZN16mo3dModelManager4InitEv @1605
    _ZN16mo3dModelManager6FinishEv @1606
    _ZN16mo3dModelManagerC1Ei @1607
    _ZN16mo3dModelManagerC1Ev @1608
    _ZN16mo3dModelManagerC2Ei @1609
    _ZN16mo3dModelManagerC2Ev @1610
    _ZN16mo3dModelManagerD0Ev @1611
    _ZN16mo3dModelManagerD1Ev @1612
    _ZN16mo3dModelManagerD2Ev @1613
    _ZN16moCaptureDevices3AddERK15moCaptureDevice @1614
    _ZN16moCaptureDevices3GetEi @1615
    _ZN16moCaptureDevices3SetEiRK15moCaptureDevice @1616
    _ZN16moCaptureDevices4CopyERKS_ @1617
    _ZN16moCaptureDevices4CopyERKS_ii @1618
    _ZN16moCaptureDevices4InitEi15moCaptureDevice @1619
    _ZN16moCaptureDevices5CountEv @1620
    _ZN16moCaptureDevices5EmptyEv @1621
    _ZN16moCaptureDevices6FinishEv @1622
    _ZN16moCaptureDevices6InsertEiRK15moCaptureDevice @1623
    _ZN16moCaptureDevices6RemoveEi @1624
    _ZN16moCaptureDevicesC1ERKS_ @1625
    _ZN16moCaptureDevicesC1Ei @1626
    _ZN16moCaptureDevicesC1Ev @1627
    _ZN16moCaptureDevicesC2ERKS_ @1628
    _ZN16moCaptureDevicesC2Ei @1629
    _ZN16moCaptureDevicesC2Ev @1630
    _ZN16moCaptureDevicesD0Ev @1631
    _ZN16moCaptureDevicesD1Ev @1632
    _ZN16moCaptureDevicesD2Ev @1633
    _ZN16moCaptureDevicesaSERKS_ @1634
    _ZN16moDecoderManager4InitEv @1635
    _ZN16moDecoderManager6FinishEv @1636
    _ZN16moDecoderManagerC1Ev @1637
    _ZN16moDecoderManagerC2Ev @1638
    _ZN16moDecoderManagerD0Ev @1639
    _ZN16moDecoderManagerD1Ev @1640
    _ZN16moDecoderManagerD2Ev @1641
    _ZN16moDeviceCodeList3AddEiii @1642
    _ZN16moDeviceCodeList4CopyEPS_ @1643
    _ZN16moDeviceCodeList4InitEv @1644
    _ZN16moDeviceCodeList6DeleteEP12moDeviceCode @1645
    _ZN16moDeviceCodeList6FinishEv @1646
    _ZN16moDeviceCodeListC1Ev @1647
    _ZN16moDeviceCodeListC2Ev @1648
    _ZN16moDeviceCodeListD0Ev @1649
    _ZN16moDeviceCodeListD1Ev @1650
    _ZN16moDeviceCodeListD2Ev @1651
    _ZN16moDirectoryArray3AddERKP11moDirectory @1652
    _ZN16moDirectoryArray3GetEi @1653
    _ZN16moDirectoryArray3SetEiRKP11moDirectory @1654
    _ZN16moDirectoryArray4CopyERKS_ @1655
    _ZN16moDirectoryArray4CopyERKS_ii @1656
    _ZN16moDirectoryArray4InitEiP11moDirectory @1657
    _ZN16moDirectoryArray5CountEv @1658
    _ZN16moDirectoryArray5EmptyEv @1659
    _ZN16moDirectoryArray6FinishEv @1660
    _ZN16moDirectoryArray6InsertEiRKP11moDirectory @1661
    _ZN16moDirectoryArray6RemoveEi @1662
    _ZN16moDirectoryArrayC1ERKS_ @1663
    _ZN16moDirectoryArrayC1Ei @1664
    _ZN16moDirectoryArrayC1Ev @1665
    _ZN16moDirectoryArrayC2ERKS_ @1666
    _ZN16moDirectoryArrayC2Ei @1667
    _ZN16moDirectoryArrayC2Ev @1668
    _ZN16moDirectoryArrayD0Ev @1669
    _ZN16moDirectoryArrayD1Ev @1670
    _ZN16moDirectoryArrayD2Ev @1671
    _ZN16moDirectoryArrayaSERKS_ @1672
    _ZN16moDisplayOutputs3AddERKP15moDisplayOutput @1673
    _ZN16moDisplayOutputs3GetEi @1674
    _ZN16moDisplayOutputs3SetEiRKP15moDisplayOutput @1675
    _ZN16moDisplayOutputs4CopyERKS_ @1676
    _ZN16moDisplayOutputs4CopyERKS_ii @1677
    _ZN16moDisplayOutputs4InitEiP15moDisplayOutput @1678
    _ZN16moDisplayOutputs5CountEv @1679
    _ZN16moDisplayOutputs5EmptyEv @1680
    _ZN16moDisplayOutputs6FinishEv @1681
    _ZN16moDisplayOutputs6InsertEiRKP15moDisplayOutput @1682
    _ZN16moDisplayOutputs6RemoveEi @1683
    _ZN16moDisplayOutputsC1ERKS_ @1684
    _ZN16moDisplayOutputsC1Ei @1685
    _ZN16moDisplayOutputsC1Ev @1686
    _ZN16moDisplayOutputsC2ERKS_ @1687
    _ZN16moDisplayOutputsC2Ei @1688
    _ZN16moDisplayOutputsC2Ev @1689
    _ZN16moDisplayOutputsD0Ev @1690
    _ZN16moDisplayOutputsD1Ev @1691
    _ZN16moDisplayOutputsD2Ev @1692
    _ZN16moDisplayOutputsaSERKS_ @1693
    _ZN16moGuiObjectArray3AddERKP11moGuiObject @1694
    _ZN16moGuiObjectArray3GetEi @1695
    _ZN16moGuiObjectArray3SetEiRKP11moGuiObject @1696
    _ZN16moGuiObjectArray4CopyERKS_ @1697
    _ZN16moGuiObjectArray4CopyERKS_ii @1698
    _ZN16moGuiObjectArray4InitEiP11moGuiObject @1699
    _ZN16moGuiObjectArray5CountEv @1700
    _ZN16moGuiObjectArray5EmptyEv @1701
    _ZN16moGuiObjectArray6FinishEv @1702
    _ZN16moGuiObjectArray6InsertEiRKP11moGuiObject @1703
    _ZN16moGuiObjectArray6RemoveEi @1704
    _ZN16moGuiObjectArrayC1ERKS_ @1705
    _ZN16moGuiObjectArrayC1Ei @1706
    _ZN16moGuiObjectArrayC1Ev @1707
    _ZN16moGuiObjectArrayC2ERKS_ @1708
    _ZN16moGuiObjectArrayC2Ei @1709
    _ZN16moGuiObjectArrayC2Ev @1710
    _ZN16moGuiObjectArrayD0Ev @1711
    _ZN16moGuiObjectArrayD1Ev @1712
    _ZN16moGuiObjectArrayD2Ev @1713
    _ZN16moGuiObjectArrayaSERKS_ @1714
    _ZN16moIODevicePlugin4LoadE7moText0 @1715
    _ZN16moIODevicePlugin6CreateEv @1716
    _ZN16moIODevicePlugin6UnloadEv @1717
    _ZN16moIODevicePlugin7DestroyEP10moIODevice @1718
    _ZN16moIODevicePluginD0Ev @1719
    _ZN16moIODevicePluginD1Ev @1720
    _ZN16moIODevicesArray3AddERKP10moIODevice @1721
    _ZN16moIODevicesArray3GetEi @1722
    _ZN16moIODevicesArray3SetEiRKP10moIODevice @1723
    _ZN16moIODevicesArray4CopyERKS_ @1724
    _ZN16moIODevicesArray4CopyERKS_ii @1725
    _ZN16moIODevicesArray4InitEiP10moIODevice @1726
    _ZN16moIODevicesArray5CountEv @1727
    _ZN16moIODevicesArray5EmptyEv @1728
    _ZN16moIODevicesArray6FinishEv @1729
    _ZN16moIODevicesArray6InsertEiRKP10moIODevice @1730
    _ZN16moIODevicesArray6RemoveEi @1731
    _ZN16moIODevicesArrayC1ERKS_ @1732
    _ZN16moIODevicesArrayC1Ei @1733
    _ZN16moIODevicesArrayC1Ev @1734
    _ZN16moIODevicesArrayC2ERKS_ @1735
    _ZN16moIODevicesArrayC2Ei @1736
    _ZN16moIODevicesArrayC2Ev @1737
    _ZN16moIODevicesArrayD0Ev @1738
    _ZN16moIODevicesArrayD1Ev @1739
    _ZN16moIODevicesArrayD2Ev @1740
    _ZN16moIODevicesArrayaSERKS_ @1741
    _ZN16moLiveSystemPtrs3AddERKP12moLiveSystem @1742
    _ZN16moLiveSystemPtrs3GetEi @1743
    _ZN16moLiveSystemPtrs3SetEiRKP12moLiveSystem @1744
    _ZN16moLiveSystemPtrs4CopyERKS_ @1745
    _ZN16moLiveSystemPtrs4CopyERKS_ii @1746
    _ZN16moLiveSystemPtrs4InitEiP12moLiveSystem @1747
    _ZN16moLiveSystemPtrs5CountEv @1748
    _ZN16moLiveSystemPtrs5EmptyEv @1749
    _ZN16moLiveSystemPtrs6FinishEv @1750
    _ZN16moLiveSystemPtrs6InsertEiRKP12moLiveSystem @1751
    _ZN16moLiveSystemPtrs6RemoveEi @1752
    _ZN16moLiveSystemPtrsC1ERKS_ @1753
    _ZN16moLiveSystemPtrsC1Ei @1754
    _ZN16moLiveSystemPtrsC1Ev @1755
    _ZN16moLiveSystemPtrsC2ERKS_ @1756
    _ZN16moLiveSystemPtrsC2Ei @1757
    _ZN16moLiveSystemPtrsC2Ev @1758
    _ZN16moLiveSystemPtrsD0Ev @1759
    _ZN16moLiveSystemPtrsD1Ev @1760
    _ZN16moLiveSystemPtrsD2Ev @1761
    _ZN16moLiveSystemPtrsaSERKS_ @1762
    _ZN16moMultipleCurve2IdE16GetSpeedWithDataEdPv @1763
    _ZN16moMultipleCurve2IdEC1EiPd @1764
    _ZN16moMultipleCurve2IdEC2EiPd @1765
    _ZN16moMultipleCurve2IdED0Ev @1766
    _ZN16moMultipleCurve2IdED1Ev @1767
    _ZN16moMultipleCurve2IdED2Ev @1768
    _ZN16moMultipleCurve2IfE16GetSpeedWithDataEfPv @1769
    _ZN16moMultipleCurve2IfEC1EiPf @1770
    _ZN16moMultipleCurve2IfEC2EiPf @1771
    _ZN16moMultipleCurve2IfED0Ev @1772
    _ZN16moMultipleCurve2IfED1Ev @1773
    _ZN16moMultipleCurve2IfED2Ev @1774
    _ZN16moMultipleCurve3IdE16GetSpeedWithDataEdPv @1775
    _ZN16moMultipleCurve3IdEC1EiPd @1776
    _ZN16moMultipleCurve3IdEC2EiPd @1777
    _ZN16moMultipleCurve3IdED0Ev @1778
    _ZN16moMultipleCurve3IdED1Ev @1779
    _ZN16moMultipleCurve3IdED2Ev @1780
    _ZN16moMultipleCurve3IfE16GetSpeedWithDataEfPv @1781
    _ZN16moMultipleCurve3IfEC1EiPf @1782
    _ZN16moMultipleCurve3IfEC2EiPf @1783
    _ZN16moMultipleCurve3IfED0Ev @1784
    _ZN16moMultipleCurve3IfED1Ev @1785
    _ZN16moMultipleCurve3IfED2Ev @1786
    _ZN16moNetConnections3AddERKP15moNetConnection @1787
    _ZN16moNetConnections3GetEi @1788
    _ZN16moNetConnections3SetEiRKP15moNetConnection @1789
    _ZN16moNetConnections4CopyERKS_ @1790
    _ZN16moNetConnections4CopyERKS_ii @1791
    _ZN16moNetConnections4InitEiP15moNetConnection @1792
    _ZN16moNetConnections5CountEv @1793
    _ZN16moNetConnections5EmptyEv @1794
    _ZN16moNetConnections6FinishEv @1795
    _ZN16moNetConnections6InsertEiRKP15moNetConnection @1796
    _ZN16moNetConnections6RemoveEi @1797
    _ZN16moNetConnectionsC1ERKS_ @1798
    _ZN16moNetConnectionsC1Ei @1799
    _ZN16moNetConnectionsC1Ev @1800
    _ZN16moNetConnectionsC2ERKS_ @1801
    _ZN16moNetConnectionsC2Ei @1802
    _ZN16moNetConnectionsC2Ev @1803
    _ZN16moNetConnectionsD0Ev @1804
    _ZN16moNetConnectionsD1Ev @1805
    _ZN16moNetConnectionsD2Ev @1806
    _ZN16moNetConnectionsaSERKS_ @1807
    _ZN16moParserFunction10OnFuncEvalEv @1808
    _ZN16moParserFunction11OnDerivEvalEi @1809
    _ZN16moParserFunction12BuildVarListEv @1810
    _ZN16moParserFunction13OnParamUpdateEv @1811
    _ZN16moParserFunction14BuildParamListEv @1812
    _ZN16moParserFunction14CheckVariablesEv @1813
    _ZN16moParserFunction16AddMathConstantsEv @1814
    _ZN16moParserFunction16AddMathFunctionsEv @1815
    _ZN16moParserFunction4InitERK7moText0 @1816
    _ZN16moParserFunction6FinishEv @1817
    _ZN16moResourcePlugin4LoadE7moText0 @1818
    _ZN16moResourcePlugin6CreateEv @1819
    _ZN16moResourcePlugin6UnloadEv @1820
    _ZN16moResourcePlugin7DestroyEP10moResource @1821
    _ZN16moResourcePluginD0Ev @1822
    _ZN16moResourcePluginD1Ev @1823
    _ZN16moSequenceEffect11InteractionEP17moIODeviceManager @1824
    _ZN16moSequenceEffect4DrawEP7moTempoP13moEffectState @1825
    _ZN16moSequenceEffect4InitEv @1826
    _ZN16moSequenceEffect6FinishEv @1827
    _ZN16moSequenceEffect9LoadCodesEP17moIODeviceManager @1828
    _ZN16moSequenceEffectC1EPc @1829
    _ZN16moSequenceEffectC1Ev @1830
    _ZN16moSequenceEffectC2EPc @1831
    _ZN16moSequenceEffectC2Ev @1832
    _ZN16moSequenceEffectD0Ev @1833
    _ZN16moSequenceEffectD1Ev @1834
    _ZN16moSequenceEffectD2Ev @1835
    _ZN16moTextureBuffers3AddERKP15moTextureBuffer @1836
    _ZN16moTextureBuffers3GetEi @1837
    _ZN16moTextureBuffers3SetEiRKP15moTextureBuffer @1838
    _ZN16moTextureBuffers4CopyERKS_ @1839
    _ZN16moTextureBuffers4CopyERKS_ii @1840
    _ZN16moTextureBuffers4InitEiP15moTextureBuffer @1841
    _ZN16moTextureBuffers5CountEv @1842
    _ZN16moTextureBuffers5EmptyEv @1843
    _ZN16moTextureBuffers6FinishEv @1844
    _ZN16moTextureBuffers6InsertEiRKP15moTextureBuffer @1845
    _ZN16moTextureBuffers6RemoveEi @1846
    _ZN16moTextureBuffersC1ERKS_ @1847
    _ZN16moTextureBuffersC1Ei @1848
    _ZN16moTextureBuffersC1Ev @1849
    _ZN16moTextureBuffersC2ERKS_ @1850
    _ZN16moTextureBuffersC2Ei @1851
    _ZN16moTextureBuffersC2Ev @1852
    _ZN16moTextureBuffersD0Ev @1853
    _ZN16moTextureBuffersD1Ev @1854
    _ZN16moTextureBuffersD2Ev @1855
    _ZN16moTextureBuffersaSERKS_ @1856
    _ZN16moTextureManager10AddTextureE7moText0 @1857
    _ZN16moTextureManager10AddTextureE7moText0jj10moTexParam @1858
    _ZN16moTextureManager10AddTextureE7moText0jjPvjj10moTexParam @1859
    _ZN16moTextureManager10AddTextureEP7moParam @1860
    _ZN16moTextureManager10AddTextureEP7moValue @1861
    _ZN16moTextureManager10AddTextureEj7moText010moTexParam @1862
    _ZN16moTextureManager13CreateTextureEj7moText010moTexParam @1863
    _ZN16moTextureManager13DeleteTextureEj @1864
    _ZN16moTextureManager14GetTextureMOIdE7moText0j @1865
    _ZN16moTextureManager14GetTextureMOIdEP7moParamj @1866
    _ZN16moTextureManager14GetTextureMOIdEP7moValuej @1867
    _ZN16moTextureManager14GetTextureMOIdEj @1868
    _ZN16moTextureManager14GetTypeForFileE7moText0 @1869
    _ZN16moTextureManager16AddTextureBufferE7moText0S0_ @1870
    _ZN16moTextureManager16GetTextureBufferE7moText0jS0_ @1871
    _ZN16moTextureManager16GetTextureBufferEi @1872
    _ZN16moTextureManager17CreateMultipleTexEP17moTextureMultipleP7moParam @1873
    _ZN16moTextureManager17CreateMultipleTexEP17moTextureMultipleP7moValue @1874
    _ZN16moTextureManager4InitEv @1875
    _ZN16moTextureManager6FinishEv @1876
    _ZN16moTextureManager6UpdateEP11moEventList @1877
    _ZN16moTextureManager7GetGLIdEj @1878
    _ZN16moTextureManager7GetTypeEj @1879
    _ZN16moTextureManagerC1Ev @1880
    _ZN16moTextureManagerC2Ev @1881
    _ZN16moTextureManagerD0Ev @1882
    _ZN16moTextureManagerD1Ev @1883
    _ZN16moTextureManagerD2Ev @1884
    _ZN16moTrackerFeature11printTracksEv @1885
    _ZN16moTrackerFeature5printEv @1886
    _ZN16moTrackerFeature9updatePosEffiffffff @1887
    _ZN16moTrackerFeatureC1Ev @1888
    _ZN16moTrackerFeatureC2Ev @1889
    _ZN16moTrackerFeatureD1Ev @1890
    _ZN16moTrackerFeatureD2Ev @1891
    _ZN16moVideoFramework17GetCaptureDevicesEv @1892
    _ZN16moVideoFramework18SetPreferredFormatER15moCaptureDevice @1893
    _ZN16moVideoFramework19CleanCaptureDevicesEv @1894
    _ZN16moVideoFramework19GetPreferredDevicesEv @1895
    _ZN16moVideoFramework19SetPreferredDevicesEP16moCaptureDevices @1896
    _ZN16moVideoFrameworkC1Ev @1897
    _ZN16moVideoFrameworkC2Ev @1898
    _ZN16moVideoFrameworkD0Ev @1899
    _ZN16moVideoFrameworkD1Ev @1900
    _ZN16moVideoFrameworkD2Ev @1901
    _ZN17moDataSessionKeys3AddERKP16moDataSessionKey @1902
    _ZN17moDataSessionKeys3GetEi @1903
    _ZN17moDataSessionKeys3SetEiRKP16moDataSessionKey @1904
    _ZN17moDataSessionKeys4CopyERKS_ @1905
    _ZN17moDataSessionKeys4CopyERKS_ii @1906
    _ZN17moDataSessionKeys4InitEiP16moDataSessionKey @1907
    _ZN17moDataSessionKeys5CountEv @1908
    _ZN17moDataSessionKeys5EmptyEv @1909
    _ZN17moDataSessionKeys6FinishEv @1910
    _ZN17moDataSessionKeys6InsertEiRKP16moDataSessionKey @1911
    _ZN17moDataSessionKeys6RemoveEi @1912
    _ZN17moDataSessionKeysC1ERKS_ @1913
    _ZN17moDataSessionKeysC1Ei @1914
    _ZN17moDataSessionKeysC1Ev @1915
    _ZN17moDataSessionKeysC2ERKS_ @1916
    _ZN17moDataSessionKeysC2Ei @1917
    _ZN17moDataSessionKeysC2Ev @1918
    _ZN17moDataSessionKeysD0Ev @1919
    _ZN17moDataSessionKeysD1Ev @1920
    _ZN17moDataSessionKeysD2Ev @1921
    _ZN17moDataSessionKeysaSERKS_ @1922
    _ZN17moHueSatIntMatrix14SaturateMatrixEv @1923
    _ZN17moHueSatIntMatrix15HueRotateMatrixEv @1924
    _ZN17moHueSatIntMatrix15IntensityMatrixEv @1925
    _ZN17moHueSatIntMatrix21SimpleHueRotateMatrixEv @1926
    _ZN17moHueSatIntMatrix4InitEjffffff @1927
    _ZN17moHueSatIntMatrix6FinishEv @1928
    _ZN17moHueSatIntMatrix6UpdateEfff @1929
    _ZN17moHueSatIntMatrixC1Ev @1930
    _ZN17moHueSatIntMatrixC2Ev @1931
    _ZN17moHueSatIntMatrixD0Ev @1932
    _ZN17moHueSatIntMatrixD1Ev @1933
    _ZN17moHueSatIntMatrixD2Ev @1934
    _ZN17moIODeviceFactoryD0Ev @1935
    _ZN17moIODeviceFactoryD1Ev @1936
    _ZN17moIODeviceFactoryD2Ev @1937
    _ZN17moIODeviceManager10PollEventsEv @1938
    _ZN17moIODeviceManager11NewIODeviceE7moText0S0_S0_18moMoldeoObjectTypeii @1939
    _ZN17moIODeviceManager14RemoveIODeviceEi @1940
    _ZN17moIODeviceManager4InitEv @1941
    _ZN17moIODeviceManager6FinishEv @1942
    _ZN17moIODeviceManager6UpdateEv @1943
    _ZN17moIODeviceManager7GetCodeEPc @1944
    _ZN17moIODeviceManager9GetEventsEv @1945
    _ZN17moIODeviceManager9GetStatusEi @1946
    _ZN17moIODeviceManager9IODevicesEv @1947
    _ZN17moIODeviceManager9SetStatusEia @1948
    _ZN17moIODeviceManagerC1Ev @1949
    _ZN17moIODeviceManagerC2Ev @1950
    _ZN17moIODeviceManagerD0Ev @1951
    _ZN17moIODeviceManagerD1Ev @1952
    _ZN17moIODeviceManagerD2Ev @1953
    _ZN17moLuaRestoreStackD0Ev @1954
    _ZN17moLuaRestoreStackD1Ev @1955
    _ZN17moParamDefinition10GetTypeStrEv @1956
    _ZN17moParamDefinition7IsValidEv @1957
    _ZN17moParamDefinitionC1ER7moText0R11moParamType @1958
    _ZN17moParamDefinitionC1ER7moText0S1_ @1959
    _ZN17moParamDefinitionC1ERKS_ @1960
    _ZN17moParamDefinitionC1Ev @1961
    _ZN17moParamDefinitionC2ER7moText0R11moParamType @1962
    _ZN17moParamDefinitionC2ER7moText0S1_ @1963
    _ZN17moParamDefinitionC2ERKS_ @1964
    _ZN17moParamDefinitionC2Ev @1965
    _ZN17moParamDefinitionD0Ev @1966
    _ZN17moParamDefinitionD1Ev @1967
    _ZN17moParamDefinitionD2Ev @1968
    _ZN17moParamDefinitionaSERKS_ @1969
    _ZN17moPreEffectsArray3AddERKP11moPreEffect @1970
    _ZN17moPreEffectsArray3GetEi @1971
    _ZN17moPreEffectsArray3SetEiRKP11moPreEffect @1972
    _ZN17moPreEffectsArray4CopyERKS_ @1973
    _ZN17moPreEffectsArray4CopyERKS_ii @1974
    _ZN17moPreEffectsArray4InitEiP11moPreEffect @1975
    _ZN17moPreEffectsArray5CountEv @1976
    _ZN17moPreEffectsArray5EmptyEv @1977
    _ZN17moPreEffectsArray6FinishEv @1978
    _ZN17moPreEffectsArray6InsertEiRKP11moPreEffect @1979
    _ZN17moPreEffectsArray6RemoveEi @1980
    _ZN17moPreEffectsArrayC1ERKS_ @1981
    _ZN17moPreEffectsArrayC1Ei @1982
    _ZN17moPreEffectsArrayC1Ev @1983
    _ZN17moPreEffectsArrayC2ERKS_ @1984
    _ZN17moPreEffectsArrayC2Ei @1985
    _ZN17moPreEffectsArrayC2Ev @1986
    _ZN17moPreEffectsArrayD0Ev @1987
    _ZN17moPreEffectsArrayD1Ev @1988
    _ZN17moPreEffectsArrayD2Ev @1989
    _ZN17moPreEffectsArrayaSERKS_ @1990
    _ZN17moPrePluginsArray3AddERKP11moPrePlugin @1991
    _ZN17moPrePluginsArray3GetEi @1992
    _ZN17moPrePluginsArray3SetEiRKP11moPrePlugin @1993
    _ZN17moPrePluginsArray4CopyERKS_ @1994
    _ZN17moPrePluginsArray4CopyERKS_ii @1995
    _ZN17moPrePluginsArray4InitEiP11moPrePlugin @1996
    _ZN17moPrePluginsArray5CountEv @1997
    _ZN17moPrePluginsArray5EmptyEv @1998
    _ZN17moPrePluginsArray6FinishEv @1999
    _ZN17moPrePluginsArray6InsertEiRKP11moPrePlugin @2000
    _ZN17moPrePluginsArray6RemoveEi @2001
    _ZN17moPrePluginsArrayC1ERKS_ @2002
    _ZN17moPrePluginsArrayC1Ei @2003
    _ZN17moPrePluginsArrayC1Ev @2004
    _ZN17moPrePluginsArrayC2ERKS_ @2005
    _ZN17moPrePluginsArrayC2Ei @2006
    _ZN17moPrePluginsArrayC2Ev @2007
    _ZN17moPrePluginsArrayD0Ev @2008
    _ZN17moPrePluginsArrayD1Ev @2009
    _ZN17moPrePluginsArrayD2Ev @2010
    _ZN17moPrePluginsArrayaSERKS_ @2011
    _ZN17moResourceFactoryD0Ev @2012
    _ZN17moResourceFactoryD1Ev @2013
    _ZN17moResourceFactoryD2Ev @2014
    _ZN17moResourceManager11AddResourceEP10moResource @2015
    _ZN17moResourceManager11GetResourceEi @2016
    _ZN17moResourceManager11NewResourceE7moText0ii @2017
    _ZN17moResourceManager13GetResourceIdE7moText0 @2018
    _ZN17moResourceManager14RemoveResourceEi @2019
    _ZN17moResourceManager15GetResourceNameEi @2020
    _ZN17moResourceManager15GetResourceTypeEi @2021
    _ZN17moResourceManager17GetResourceByTypeE14moResourceType @2022
    _ZN17moResourceManager4InitERK7moText0R8moConfigiiiiiP6HWND__Pv @2023
    _ZN17moResourceManager6FinishEv @2024
    _ZN17moResourceManager9ResourcesEv @2025
    _ZN17moResourceManagerC1Ev @2026
    _ZN17moResourceManagerC2Ev @2027
    _ZN17moResourceManagerD0Ev @2028
    _ZN17moResourceManagerD1Ev @2029
    _ZN17moResourceManagerD2Ev @2030
    _ZN17moTautInterpolant10OnFuncEvalEv @2031
    _ZN17moTautInterpolant11OnDerivEvalEi @2032
    _ZN17moTautInterpolant12BuildVarListEv @2033
    _ZN17moTautInterpolant13OnParamUpdateEv @2034
    _ZN17moTautInterpolant14BuildParamListEv @2035
    _ZN17moTautInterpolant4InitER7moText0 @2036
    _ZN17moTautInterpolant8PhiFunc1Ed @2037
    _ZN17moTautInterpolant8PhiFunc2Ed @2038
    _ZN17moTautInterpolant9DPhiFunc1Ed @2039
    _ZN17moTautInterpolant9DPhiFunc2Ed @2040
    _ZN17moTextureAnimated11InterpolateEv @2041
    _ZN17moTextureAnimated15GetNumberFramesEv @2042
    _ZN17moTextureAnimated15IsInterpolatingEv @2043
    _ZN17moTextureAnimated15SetNumberFramesEj @2044
    _ZN17moTextureAnimated16SetInterpolationEjj @2045
    _ZN17moTextureAnimated18GetFramesPerSecondEv @2046
    _ZN17moTextureAnimated18NeedsInterpolationEv @2047
    _ZN17moTextureAnimated18SetFramesPerSecondEf @2048
    _ZN17moTextureAnimated21ActivateInterpolationEj @2049
    _ZN17moTextureAnimated21IsInterpolationActiveEv @2050
    _ZN17moTextureAnimated4InitE7moText0jP17moResourceManager10moTexParam @2051
    _ZN17moTextureAnimated6FinishEv @2052
    _ZN17moTextureAnimated7GetGLIdEP7moTempo @2053
    _ZN17moTextureAnimated7GetGLIdEf @2054
    _ZN17moTextureAnimated7GetGLIdEj @2055
    _ZN17moTextureAnimated8GetFrameEj @2056
    _ZN17moTextureAnimatedC1Ev @2057
    _ZN17moTextureAnimatedC2Ev @2058
    _ZN17moTextureAnimatedD0Ev @2059
    _ZN17moTextureAnimatedD1Ev @2060
    _ZN17moTextureAnimatedD2Ev @2061
    _ZN17moTextureMultiple12ValidTextureEj @2062
    _ZN17moTextureMultiple13SupportedFileE7moText0 @2063
    _ZN17moTextureMultiple15SetTextureCountEj @2064
    _ZN17moTextureMultiple4InitE7moText0jP17moResourceManager10moTexParam @2065
    _ZN17moTextureMultiple4LoadE7moText0R14moTextureArrayjj @2066
    _ZN17moTextureMultiple4LoadEP7moParam @2067
    _ZN17moTextureMultiple4LoadEP7moValue @2068
    _ZN17moTextureMultiple6FinishEv @2069
    _ZN17moTextureMultiple8AddFrameEP9moTexture @2070
    _ZN17moTextureMultiple8GetFrameEj @2071
    _ZN17moTextureMultiple8SetFrameEjP9moTexture @2072
    _ZN17moTextureMultipleC1Ev @2073
    _ZN17moTextureMultipleC2Ev @2074
    _ZN17moTextureMultipleD0Ev @2075
    _ZN17moTextureMultipleD1Ev @2076
    _ZN17moTextureMultipleD2Ev @2077
    _ZN17moValueDefinition10GetTypeStrEv @2078
    _ZN17moValueDefinition11GetCodeNameEv @2079
    _ZN17moValueDefinition11SetCodeNameE7moText0 @2080
    _ZN17moValueDefinition12GetAttributeEv @2081
    _ZN17moValueDefinition12SetAttributeE7moText0 @2082
    _ZN17moValueDefinition7GetTypeEv @2083
    _ZN17moValueDefinition7IsValidEv @2084
    _ZN17moValueDefinition7SetTypeE11moValueType @2085
    _ZN17moValueDefinition8GetIndexEv @2086
    _ZN17moValueDefinition8GetRangeEPfS0_ @2087
    _ZN17moValueDefinition8SetIndexEi @2088
    _ZN17moValueDefinition8SetRangeE7moText0S0_ @2089
    _ZN17moValueDefinition8SetRangeEff @2090
    _ZN17moValueDefinitionC1ERKS_ @2091
    _ZN17moValueDefinitionC1Ev @2092
    _ZN17moValueDefinitionC2ERKS_ @2093
    _ZN17moValueDefinitionC2Ev @2094
    _ZN17moValueDefinitionD0Ev @2095
    _ZN17moValueDefinitionD1Ev @2096
    _ZN17moValueDefinitionD2Ev @2097
    _ZN17moValueDefinitionaSERKS_ @2098
    _ZN17moVideoBufferPath12UpdateImagesEi @2099
    _ZN17moVideoBufferPath13LoadCompletedEv @2100
    _ZN17moVideoBufferPath4InitEP17moResourceManager7moText0 @2101
    _ZN17moVideoBufferPath4InitEv @2102
    _ZN17moVideoBufferPath6FinishEv @2103
    _ZN17moVideoBufferPathC1Ev @2104
    _ZN17moVideoBufferPathC2Ev @2105
    _ZN17moVideoBufferPathD0Ev @2106
    _ZN17moVideoBufferPathD1Ev @2107
    _ZN17moVideoBufferPathD2Ev @2108
    _ZN18mo3DModelSceneNode11InteractionEv @2109
    _ZN18mo3DModelSceneNode4DrawEP13moEffectStatej @2110
    _ZN18mo3DModelSceneNode4InitEP9mo3dModel @2111
    _ZN18mo3DModelSceneNode4InitEv @2112
    _ZN18mo3DModelSceneNode6FinishEv @2113
    _ZN18mo3DModelSceneNode6UpdateEv @2114
    _ZN18mo3DModelSceneNodeC1Ev @2115
    _ZN18mo3DModelSceneNodeC2Ev @2116
    _ZN18mo3DModelSceneNodeD0Ev @2117
    _ZN18mo3DModelSceneNodeD1Ev @2118
    _ZN18mo3DModelSceneNodeD2Ev @2119
    _ZN18moBrightContMatrix14ContrastMatrixEv @2120
    _ZN18moBrightContMatrix16BrightnessMatrixEv @2121
    _ZN18moBrightContMatrix4InitEffff @2122
    _ZN18moBrightContMatrix6FinishEv @2123
    _ZN18moBrightContMatrix6UpdateEff @2124
    _ZN18moBrightContMatrixC1Ev @2125
    _ZN18moBrightContMatrixC2Ev @2126
    _ZN18moBrightContMatrixD0Ev @2127
    _ZN18moBrightContMatrixD1Ev @2128
    _ZN18moBrightContMatrixD2Ev @2129
    _ZN18moConfigDefinition3AddE7moText011moParamTypei @2130
    _ZN18moConfigDefinition3AddE7moText011moParamTypei7moValue @2131
    _ZN18moConfigDefinitionC1Ev @2132
    _ZN18moConfigDefinitionC2Ev @2133
    _ZN18moConfigDefinitionD0Ev @2134
    _ZN18moConfigDefinitionD1Ev @2135
    _ZN18moConfigDefinitionD2Ev @2136
    _ZN18moCubicInterpolant10OnFuncEvalEv @2137
    _ZN18moCubicInterpolant11OnDerivEvalEi @2138
    _ZN18moCubicInterpolant12BuildVarListEv @2139
    _ZN18moCubicInterpolant13OnParamUpdateEv @2140
    _ZN18moCubicInterpolant14BuildParamListEv @2141
    _ZN18moCubicInterpolant4InitER7moText0 @2142
    _ZN18moEventPacketArray3AddERKP13moEventPacket @2143
    _ZN18moEventPacketArray3GetEi @2144
    _ZN18moEventPacketArray3SetEiRKP13moEventPacket @2145
    _ZN18moEventPacketArray4CopyERKS_ @2146
    _ZN18moEventPacketArray4CopyERKS_ii @2147
    _ZN18moEventPacketArray4InitEiP13moEventPacket @2148
    _ZN18moEventPacketArray5CountEv @2149
    _ZN18moEventPacketArray5EmptyEv @2150
    _ZN18moEventPacketArray6FinishEv @2151
    _ZN18moEventPacketArray6InsertEiRKP13moEventPacket @2152
    _ZN18moEventPacketArray6RemoveEi @2153
    _ZN18moEventPacketArrayC1ERKS_ @2154
    _ZN18moEventPacketArrayC1Ei @2155
    _ZN18moEventPacketArrayC1Ev @2156
    _ZN18moEventPacketArrayC2ERKS_ @2157
    _ZN18moEventPacketArrayC2Ei @2158
    _ZN18moEventPacketArrayC2Ev @2159
    _ZN18moEventPacketArrayD0Ev @2160
    _ZN18moEventPacketArrayD1Ev @2161
    _ZN18moEventPacketArrayD2Ev @2162
    _ZN18moEventPacketArrayaSERKS_ @2163
    _ZN18moParamDefinitions3AddERK17moParamDefinition @2164
    _ZN18moParamDefinitions3GetEi @2165
    _ZN18moParamDefinitions3SetEiRK17moParamDefinition @2166
    _ZN18moParamDefinitions4CopyERKS_ @2167
    _ZN18moParamDefinitions4CopyERKS_ii @2168
    _ZN18moParamDefinitions4InitEi17moParamDefinition @2169
    _ZN18moParamDefinitions5CountEv @2170
    _ZN18moParamDefinitions5EmptyEv @2171
    _ZN18moParamDefinitions6FinishEv @2172
    _ZN18moParamDefinitions6InsertEiRK17moParamDefinition @2173
    _ZN18moParamDefinitions6RemoveEi @2174
    _ZN18moParamDefinitionsC1ERKS_ @2175
    _ZN18moParamDefinitionsC1Ei @2176
    _ZN18moParamDefinitionsC1Ev @2177
    _ZN18moParamDefinitionsC2ERKS_ @2178
    _ZN18moParamDefinitionsC2Ei @2179
    _ZN18moParamDefinitionsC2Ev @2180
    _ZN18moParamDefinitionsD0Ev @2181
    _ZN18moParamDefinitionsD1Ev @2182
    _ZN18moParamDefinitionsD2Ev @2183
    _ZN18moParamDefinitionsaSERKS_ @2184
    _ZN18moPluginDefinitionC1Ev @2185
    _ZN18moPluginDefinitionD0Ev @2186
    _ZN18moPluginDefinitionD1Ev @2187
    _ZN18moPostEffectsArray3AddERKP12moPostEffect @2188
    _ZN18moPostEffectsArray3GetEi @2189
    _ZN18moPostEffectsArray3SetEiRKP12moPostEffect @2190
    _ZN18moPostEffectsArray4CopyERKS_ @2191
    _ZN18moPostEffectsArray4CopyERKS_ii @2192
    _ZN18moPostEffectsArray4InitEiP12moPostEffect @2193
    _ZN18moPostEffectsArray5CountEv @2194
    _ZN18moPostEffectsArray5EmptyEv @2195
    _ZN18moPostEffectsArray6FinishEv @2196
    _ZN18moPostEffectsArray6InsertEiRKP12moPostEffect @2197
    _ZN18moPostEffectsArray6RemoveEi @2198
    _ZN18moPostEffectsArrayC1ERKS_ @2199
    _ZN18moPostEffectsArrayC1Ei @2200
    _ZN18moPostEffectsArrayC1Ev @2201
    _ZN18moPostEffectsArrayC2ERKS_ @2202
    _ZN18moPostEffectsArrayC2Ei @2203
    _ZN18moPostEffectsArrayC2Ev @2204
    _ZN18moPostEffectsArrayD0Ev @2205
    _ZN18moPostEffectsArrayD1Ev @2206
    _ZN18moPostEffectsArrayD2Ev @2207
    _ZN18moPostEffectsArrayaSERKS_ @2208
    _ZN18moPostPluginsArray3AddERKP12moPostPlugin @2209
    _ZN18moPostPluginsArray3GetEi @2210
    _ZN18moPostPluginsArray3SetEiRKP12moPostPlugin @2211
    _ZN18moPostPluginsArray4CopyERKS_ @2212
    _ZN18moPostPluginsArray4CopyERKS_ii @2213
    _ZN18moPostPluginsArray4InitEiP12moPostPlugin @2214
    _ZN18moPostPluginsArray5CountEv @2215
    _ZN18moPostPluginsArray5EmptyEv @2216
    _ZN18moPostPluginsArray6FinishEv @2217
    _ZN18moPostPluginsArray6InsertEiRKP12moPostPlugin @2218
    _ZN18moPostPluginsArray6RemoveEi @2219
    _ZN18moPostPluginsArrayC1ERKS_ @2220
    _ZN18moPostPluginsArrayC1Ei @2221
    _ZN18moPostPluginsArrayC1Ev @2222
    _ZN18moPostPluginsArrayC2ERKS_ @2223
    _ZN18moPostPluginsArrayC2Ei @2224
    _ZN18moPostPluginsArrayC2Ev @2225
    _ZN18moPostPluginsArrayD0Ev @2226
    _ZN18moPostPluginsArrayD1Ev @2227
    _ZN18moPostPluginsArrayD2Ev @2228
    _ZN18moPostPluginsArrayaSERKS_ @2229
    _ZN18moPreEffectFactoryD0Ev @2230
    _ZN18moPreEffectFactoryD1Ev @2231
    _ZN18moPreEffectFactoryD2Ev @2232
    _ZN18moPreconfigIndexes3AddERK21moPreconfigParamIndex @2233
    _ZN18moPreconfigIndexes3GetEi @2234
    _ZN18moPreconfigIndexes3SetEiRK21moPreconfigParamIndex @2235
    _ZN18moPreconfigIndexes4CopyERKS_ @2236
    _ZN18moPreconfigIndexes4CopyERKS_ii @2237
    _ZN18moPreconfigIndexes4InitEi21moPreconfigParamIndex @2238
    _ZN18moPreconfigIndexes5CountEv @2239
    _ZN18moPreconfigIndexes5EmptyEv @2240
    _ZN18moPreconfigIndexes6FinishEv @2241
    _ZN18moPreconfigIndexes6InsertEiRK21moPreconfigParamIndex @2242
    _ZN18moPreconfigIndexes6RemoveEi @2243
    _ZN18moPreconfigIndexesC1ERKS_ @2244
    _ZN18moPreconfigIndexesC1Ei @2245
    _ZN18moPreconfigIndexesC1Ev @2246
    _ZN18moPreconfigIndexesC2ERKS_ @2247
    _ZN18moPreconfigIndexesC2Ei @2248
    _ZN18moPreconfigIndexesC2Ev @2249
    _ZN18moPreconfigIndexesD0Ev @2250
    _ZN18moPreconfigIndexesD1Ev @2251
    _ZN18moPreconfigIndexesD2Ev @2252
    _ZN18moPreconfigIndexesaSERKS_ @2253
    _ZN18moSoundBufferArray3AddERKP13moSoundBuffer @2254
    _ZN18moSoundBufferArray3GetEi @2255
    _ZN18moSoundBufferArray3SetEiRKP13moSoundBuffer @2256
    _ZN18moSoundBufferArray4CopyERKS_ @2257
    _ZN18moSoundBufferArray4CopyERKS_ii @2258
    _ZN18moSoundBufferArray4InitEiP13moSoundBuffer @2259
    _ZN18moSoundBufferArray5CountEv @2260
    _ZN18moSoundBufferArray5EmptyEv @2261
    _ZN18moSoundBufferArray6FinishEv @2262
    _ZN18moSoundBufferArray6InsertEiRKP13moSoundBuffer @2263
    _ZN18moSoundBufferArray6RemoveEi @2264
    _ZN18moSoundBufferArrayC1ERKS_ @2265
    _ZN18moSoundBufferArrayC1Ei @2266
    _ZN18moSoundBufferArrayC1Ev @2267
    _ZN18moSoundBufferArrayC2ERKS_ @2268
    _ZN18moSoundBufferArrayC2Ei @2269
    _ZN18moSoundBufferArrayC2Ev @2270
    _ZN18moSoundBufferArrayD0Ev @2271
    _ZN18moSoundBufferArrayD1Ev @2272
    _ZN18moSoundBufferArrayD2Ev @2273
    _ZN18moSoundBufferArrayaSERKS_ @2274
    _ZN18moSoundEffectArray3AddERKP13moSoundEffect @2275
    _ZN18moSoundEffectArray3GetEi @2276
    _ZN18moSoundEffectArray3SetEiRKP13moSoundEffect @2277
    _ZN18moSoundEffectArray4CopyERKS_ @2278
    _ZN18moSoundEffectArray4CopyERKS_ii @2279
    _ZN18moSoundEffectArray4InitEiP13moSoundEffect @2280
    _ZN18moSoundEffectArray5CountEv @2281
    _ZN18moSoundEffectArray5EmptyEv @2282
    _ZN18moSoundEffectArray6FinishEv @2283
    _ZN18moSoundEffectArray6InsertEiRKP13moSoundEffect @2284
    _ZN18moSoundEffectArray6RemoveEi @2285
    _ZN18moSoundEffectArrayC1ERKS_ @2286
    _ZN18moSoundEffectArrayC1Ei @2287
    _ZN18moSoundEffectArrayC1Ev @2288
    _ZN18moSoundEffectArrayC2ERKS_ @2289
    _ZN18moSoundEffectArrayC2Ei @2290
    _ZN18moSoundEffectArrayC2Ev @2291
    _ZN18moSoundEffectArrayD0Ev @2292
    _ZN18moSoundEffectArrayD1Ev @2293
    _ZN18moSoundEffectArrayD2Ev @2294
    _ZN18moSoundEffectArrayaSERKS_ @2295
    _ZN18moVideoBufferPaths3AddERKP17moVideoBufferPath @2296
    _ZN18moVideoBufferPaths3GetEi @2297
    _ZN18moVideoBufferPaths3SetEiRKP17moVideoBufferPath @2298
    _ZN18moVideoBufferPaths4CopyERKS_ @2299
    _ZN18moVideoBufferPaths4CopyERKS_ii @2300
    _ZN18moVideoBufferPaths4InitEiP17moVideoBufferPath @2301
    _ZN18moVideoBufferPaths5CountEv @2302
    _ZN18moVideoBufferPaths5EmptyEv @2303
    _ZN18moVideoBufferPaths6FinishEv @2304
    _ZN18moVideoBufferPaths6InsertEiRKP17moVideoBufferPath @2305
    _ZN18moVideoBufferPaths6RemoveEi @2306
    _ZN18moVideoBufferPathsC1ERKS_ @2307
    _ZN18moVideoBufferPathsC1Ei @2308
    _ZN18moVideoBufferPathsC1Ev @2309
    _ZN18moVideoBufferPathsC2ERKS_ @2310
    _ZN18moVideoBufferPathsC2Ei @2311
    _ZN18moVideoBufferPathsC2Ev @2312
    _ZN18moVideoBufferPathsD0Ev @2313
    _ZN18moVideoBufferPathsD1Ev @2314
    _ZN18moVideoBufferPathsD2Ev @2315
    _ZN18moVideoBufferPathsaSERKS_ @2316
    _ZN19mo3dModelManagerRef10LoadModelsEP8moConfigjP16mo3dModelManager @2317
    _ZN19mo3dModelManagerRef3AddE7moText0P16mo3dModelManager @2318
    _ZN19mo3dModelManagerRef3GetEi @2319
    _ZN19mo3dModelManagerRef4DrawEiP13moEffectStatej @2320
    _ZN19mo3dModelManagerRef4InitEP8moConfigjP16mo3dModelManager @2321
    _ZN19mo3dModelManagerRef6FinishEv @2322
    _ZN19mo3dModelManagerRefC1Ev @2323
    _ZN19mo3dModelManagerRefC2Ev @2324
    _ZN19mo3dModelManagerRefD0Ev @2325
    _ZN19mo3dModelManagerRefD1Ev @2326
    _ZN19mo3dModelManagerRefD2Ev @2327
    _ZN19moDataSessionConfig11GetDataPathEv @2328
    _ZN19moDataSessionConfig16GetVideoFileNameEv @2329
    _ZN19moDataSessionConfig18GetSessionFileNameEv @2330
    _ZN19moDataSessionConfig20GetConsoleConfigNameEv @2331
    _ZN19moDataSessionConfigC1E7moText0S0_S0_S0_llll @2332
    _ZN19moDataSessionConfigC1Ev @2333
    _ZN19moDataSessionConfigC2E7moText0S0_S0_S0_llll @2334
    _ZN19moDataSessionConfigC2Ev @2335
    _ZN19moDataSessionConfigD0Ev @2336
    _ZN19moDataSessionConfigD1Ev @2337
    _ZN19moDataSessionConfigD2Ev @2338
    _ZN19moLuaParserFunction13SetExpressionEP9lua_State @2339
    _ZN19moLuaParserFunction14SetParameters1EP9lua_State @2340
    _ZN19moLuaParserFunction14SetParameters2EP9lua_State @2341
    _ZN19moLuaParserFunction14SetParameters3EP9lua_State @2342
    _ZN19moLuaParserFunction16GetVariableCountEP9lua_State @2343
    _ZN19moLuaParserFunction17GetParameterCountEP9lua_State @2344
    _ZN19moLuaParserFunction5Eval1EP9lua_State @2345
    _ZN19moLuaParserFunction5Eval2EP9lua_State @2346
    _ZN19moLuaParserFunction5Eval3EP9lua_State @2347
    _ZN19moLuaParserFunction7methodsE @2348 DATA
    _ZN19moLuaParserFunction9classNameE @2349 DATA
    _ZN19moLuaParserFunctionC1EP9lua_State @2350
    _ZN19moLuaParserFunctionC2EP9lua_State @2351
    _ZN19moLuaVirtualMachine10FinaliseVMEv @2352
    _ZN19moLuaVirtualMachine12CallFunctionEii @2353
    _ZN19moLuaVirtualMachine12InitialiseVMEv @2354
    _ZN19moLuaVirtualMachine2OkEv @2355
    _ZN19moLuaVirtualMachine5PanicEP9lua_State @2356
    _ZN19moLuaVirtualMachine7RunFileEPKc @2357
    _ZN19moLuaVirtualMachine9RunBufferEPKhjPKc @2358
    _ZN19moLuaVirtualMachineC1Ev @2359
    _ZN19moLuaVirtualMachineC2Ev @2360
    _ZN19moLuaVirtualMachineD0Ev @2361
    _ZN19moLuaVirtualMachineD1Ev @2362
    _ZN19moLuaVirtualMachineD2Ev @2363
    _ZN19moMathFunctionArray3AddERKP14moMathFunction @2364
    _ZN19moMathFunctionArray3GetEi @2365
    _ZN19moMathFunctionArray3SetEiRKP14moMathFunction @2366
    _ZN19moMathFunctionArray4CopyERKS_ @2367
    _ZN19moMathFunctionArray4CopyERKS_ii @2368
    _ZN19moMathFunctionArray4InitEiP14moMathFunction @2369
    _ZN19moMathFunctionArray5CountEv @2370
    _ZN19moMathFunctionArray5EmptyEv @2371
    _ZN19moMathFunctionArray6FinishEv @2372
    _ZN19moMathFunctionArray6InsertEiRKP14moMathFunction @2373
    _ZN19moMathFunctionArray6RemoveEi @2374
    _ZN19moMathFunctionArrayC1ERKS_ @2375
    _ZN19moMathFunctionArrayC1Ei @2376
    _ZN19moMathFunctionArrayC1Ev @2377
    _ZN19moMathFunctionArrayC2ERKS_ @2378
    _ZN19moMathFunctionArrayC2Ei @2379
    _ZN19moMathFunctionArrayC2Ev @2380
    _ZN19moMathFunctionArrayD0Ev @2381
    _ZN19moMathFunctionArrayD1Ev @2382
    _ZN19moMathFunctionArrayD2Ev @2383
    _ZN19moMathFunctionArrayaSERKS_ @2384
    _ZN19moMathFunctionIndex10ValidIndexEj @2385
    _ZN19moMathFunctionIndex11GetFunctionEj @2386
    _ZN19moMathFunctionIndex13LoadFunctionsEP8moConfigP13moMathManagerjj @2387
    _ZN19moMathFunctionIndex3AddE7moText0P13moMathManager @2388
    _ZN19moMathFunctionIndex3AddEP14moMathFunction @2389
    _ZN19moMathFunctionIndex3FunEi @2390
    _ZN19moMathFunctionIndex4InitEP8moConfigP13moMathManager12moParamIndexj @2391
    _ZN19moMathFunctionIndex4InitEP8moConfigP13moMathManager16moParamReferencej @2392
    _ZN19moMathFunctionIndex4InitEP8moConfigP13moMathManagerij @2393
    _ZN19moMathFunctionIndex6FinishEv @2394
    _ZN19moMathFunctionIndexD0Ev @2395
    _ZN19moMathFunctionIndexD1Ev @2396
    _ZN19moMathVariableArray3AddERKP14moMathVariable @2397
    _ZN19moMathVariableArray3GetEi @2398
    _ZN19moMathVariableArray3SetEiRKP14moMathVariable @2399
    _ZN19moMathVariableArray4CopyERKS_ @2400
    _ZN19moMathVariableArray4CopyERKS_ii @2401
    _ZN19moMathVariableArray4InitEiP14moMathVariable @2402
    _ZN19moMathVariableArray5CountEv @2403
    _ZN19moMathVariableArray5EmptyEv @2404
    _ZN19moMathVariableArray6FinishEv @2405
    _ZN19moMathVariableArray6InsertEiRKP14moMathVariable @2406
    _ZN19moMathVariableArray6RemoveEi @2407
    _ZN19moMathVariableArrayC1ERKS_ @2408
    _ZN19moMathVariableArrayC1Ei @2409
    _ZN19moMathVariableArrayC1Ev @2410
    _ZN19moMathVariableArrayC2ERKS_ @2411
    _ZN19moMathVariableArrayC2Ei @2412
    _ZN19moMathVariableArrayC2Ev @2413
    _ZN19moMathVariableArrayD0Ev @2414
    _ZN19moMathVariableArrayD1Ev @2415
    _ZN19moMathVariableArrayD2Ev @2416
    _ZN19moMathVariableArrayaSERKS_ @2417
    _ZN19moPluginDefinitions3AddERK18moPluginDefinition @2418
    _ZN19moPluginDefinitions3GetEi @2419
    _ZN19moPluginDefinitions3SetEiRK18moPluginDefinition @2420
    _ZN19moPluginDefinitions4CopyERKS_ @2421
    _ZN19moPluginDefinitions4CopyERKS_ii @2422
    _ZN19moPluginDefinitions4InitEi18moPluginDefinition @2423
    _ZN19moPluginDefinitions5CountEv @2424
    _ZN19moPluginDefinitions5EmptyEv @2425
    _ZN19moPluginDefinitions6FinishEv @2426
    _ZN19moPluginDefinitions6InsertEiRK18moPluginDefinition @2427
    _ZN19moPluginDefinitions6RemoveEi @2428
    _ZN19moPluginDefinitionsC1ERKS_ @2429
    _ZN19moPluginDefinitionsC1Ei @2430
    _ZN19moPluginDefinitionsC1Ev @2431
    _ZN19moPluginDefinitionsC2ERKS_ @2432
    _ZN19moPluginDefinitionsC2Ei @2433
    _ZN19moPluginDefinitionsC2Ev @2434
    _ZN19moPluginDefinitionsD0Ev @2435
    _ZN19moPluginDefinitionsD1Ev @2436
    _ZN19moPluginDefinitionsD2Ev @2437
    _ZN19moPluginDefinitionsaSERKS_ @2438
    _ZN19moPostEffectFactoryD0Ev @2439
    _ZN19moPostEffectFactoryD1Ev @2440
    _ZN19moPostEffectFactoryD2Ev @2441
    _ZN19moTrackerSystemData10GetFeatureEi @2442
    _ZN19moTrackerSystemData11GetFeaturesEv @2443
    _ZN19moTrackerSystemData11GetVarianceEv @2444
    _ZN19moTrackerSystemData11ResetMatrixEv @2445
    _ZN19moTrackerSystemData11SetVarianceEff @2446
    _ZN19moTrackerSystemData13GetBarycenterEv @2447
    _ZN19moTrackerSystemData13SetBarycenterEff @2448
    _ZN19moTrackerSystemData14GetVideoFormatEv @2449
    _ZN19moTrackerSystemData14PositionToZoneEff @2450
    _ZN19moTrackerSystemData14ZoneToPositionEi @2451
    _ZN19moTrackerSystemData15GetMotionMatrixE9moVector2IfE @2452
    _ZN19moTrackerSystemData15GetMotionMatrixEff @2453
    _ZN19moTrackerSystemData15PositionToZoneCEff @2454
    _ZN19moTrackerSystemData15SetMotionMatrixE9moVector2IfEi @2455
    _ZN19moTrackerSystemData15SetMotionMatrixEffi @2456
    _ZN19moTrackerSystemData15ZoneToPositionCEi @2457
    _ZN19moTrackerSystemData16GetFeaturesCountEv @2458
    _ZN19moTrackerSystemData16GetMotionMatrixCE9moVector2IfE @2459
    _ZN19moTrackerSystemData16GetMotionMatrixCEff @2460
    _ZN19moTrackerSystemData16GetMotionMatrixCEi @2461
    _ZN19moTrackerSystemData16GetValidFeaturesEv @2462
    _ZN19moTrackerSystemData16SetMotionMatrixCEffi @2463
    _ZN19moTrackerSystemData16SetValidFeaturesEi @2464
    _ZN19moTrackerSystemData17GetPositionMatrixE9moVector2IfE @2465
    _ZN19moTrackerSystemData17GetPositionMatrixEff @2466
    _ZN19moTrackerSystemData17SetPositionMatrixE9moVector2IfEi @2467
    _ZN19moTrackerSystemData17SetPositionMatrixEffi @2468
    _ZN19moTrackerSystemData18GetPositionMatrixCE9moVector2IfE @2469
    _ZN19moTrackerSystemData18GetPositionMatrixCEff @2470
    _ZN19moTrackerSystemData18GetPositionMatrixCEi @2471
    _ZN19moTrackerSystemData18SetPositionMatrixCEffi @2472
    _ZN19moTrackerSystemData19GetBarycenterMotionEv @2473
    _ZN19moTrackerSystemData19SetBarycenterMotionEff @2474
    _ZN19moTrackerSystemData21GetAccelerationMatrixE9moVector2IfE @2475
    _ZN19moTrackerSystemData21GetAccelerationMatrixEff @2476
    _ZN19moTrackerSystemData21SetAccelerationMatrixE9moVector2IfEi @2477
    _ZN19moTrackerSystemData21SetAccelerationMatrixEffi @2478
    _ZN19moTrackerSystemData25GetBarycenterAccelerationEv @2479
    _ZN19moTrackerSystemData25SetBarycenterAccelerationEff @2480
    _ZN19moTrackerSystemData6GetMaxEv @2481
    _ZN19moTrackerSystemData6GetMinEv @2482
    _ZN19moTrackerSystemData6SetMaxEff @2483
    _ZN19moTrackerSystemData6SetMinEff @2484
    _ZN19moTrackerSystemDataC1Ev @2485
    _ZN19moTrackerSystemDataC2Ev @2486
    _ZN19moTrackerSystemDataD0Ev @2487
    _ZN19moTrackerSystemDataD1Ev @2488
    _ZN19moTrackerSystemDataD2Ev @2489
    _ZN20moMasterEffectsArray3AddERKP14moMasterEffect @2490
    _ZN20moMasterEffectsArray3GetEi @2491
    _ZN20moMasterEffectsArray3SetEiRKP14moMasterEffect @2492
    _ZN20moMasterEffectsArray4CopyERKS_ @2493
    _ZN20moMasterEffectsArray4CopyERKS_ii @2494
    _ZN20moMasterEffectsArray4InitEiP14moMasterEffect @2495
    _ZN20moMasterEffectsArray5CountEv @2496
    _ZN20moMasterEffectsArray5EmptyEv @2497
    _ZN20moMasterEffectsArray6FinishEv @2498
    _ZN20moMasterEffectsArray6InsertEiRKP14moMasterEffect @2499
    _ZN20moMasterEffectsArray6RemoveEi @2500
    _ZN20moMasterEffectsArrayC1ERKS_ @2501
    _ZN20moMasterEffectsArrayC1Ei @2502
    _ZN20moMasterEffectsArrayC1Ev @2503
    _ZN20moMasterEffectsArrayC2ERKS_ @2504
    _ZN20moMasterEffectsArrayC2Ei @2505
    _ZN20moMasterEffectsArrayC2Ev @2506
    _ZN20moMasterEffectsArrayD0Ev @2507
    _ZN20moMasterEffectsArrayD1Ev @2508
    _ZN20moMasterEffectsArrayD2Ev @2509
    _ZN20moMasterEffectsArrayaSERKS_ @2510
    _ZN20moMasterPluginsArray3AddERKP14moMasterPlugin @2511
    _ZN20moMasterPluginsArray3GetEi @2512
    _ZN20moMasterPluginsArray3SetEiRKP14moMasterPlugin @2513
    _ZN20moMasterPluginsArray4CopyERKS_ @2514
    _ZN20moMasterPluginsArray4CopyERKS_ii @2515
    _ZN20moMasterPluginsArray4InitEiP14moMasterPlugin @2516
    _ZN20moMasterPluginsArray5CountEv @2517
    _ZN20moMasterPluginsArray5EmptyEv @2518
    _ZN20moMasterPluginsArray6FinishEv @2519
    _ZN20moMasterPluginsArray6InsertEiRKP14moMasterPlugin @2520
    _ZN20moMasterPluginsArray6RemoveEi @2521
    _ZN20moMasterPluginsArrayC1ERKS_ @2522
    _ZN20moMasterPluginsArrayC1Ei @2523
    _ZN20moMasterPluginsArrayC1Ev @2524
    _ZN20moMasterPluginsArrayC2ERKS_ @2525
    _ZN20moMasterPluginsArrayC2Ei @2526
    _ZN20moMasterPluginsArrayC2Ev @2527
    _ZN20moMasterPluginsArrayD0Ev @2528
    _ZN20moMasterPluginsArrayD1Ev @2529
    _ZN20moMasterPluginsArrayD2Ev @2530
    _ZN20moMasterPluginsArrayaSERKS_ @2531
    _ZN20moTextureFilterArray3AddERKP15moTextureFilter @2532
    _ZN20moTextureFilterArray3GetEi @2533
    _ZN20moTextureFilterArray3SetEiRKP15moTextureFilter @2534
    _ZN20moTextureFilterArray4CopyERKS_ @2535
    _ZN20moTextureFilterArray4CopyERKS_ii @2536
    _ZN20moTextureFilterArray4InitEiP15moTextureFilter @2537
    _ZN20moTextureFilterArray5CountEv @2538
    _ZN20moTextureFilterArray5EmptyEv @2539
    _ZN20moTextureFilterArray6FinishEv @2540
    _ZN20moTextureFilterArray6InsertEiRKP15moTextureFilter @2541
    _ZN20moTextureFilterArray6RemoveEi @2542
    _ZN20moTextureFilterArrayC1ERKS_ @2543
    _ZN20moTextureFilterArrayC1Ei @2544
    _ZN20moTextureFilterArrayC1Ev @2545
    _ZN20moTextureFilterArrayC2ERKS_ @2546
    _ZN20moTextureFilterArrayC2Ei @2547
    _ZN20moTextureFilterArrayC2Ev @2548
    _ZN20moTextureFilterArrayD0Ev @2549
    _ZN20moTextureFilterArrayD1Ev @2550
    _ZN20moTextureFilterArrayD2Ev @2551
    _ZN20moTextureFilterArrayaSERKS_ @2552
    _ZN20moTextureFilterIndex10LoadFilterEP7moValue @2553
    _ZN20moTextureFilterIndex10LoadShaderER7moText0PP8moShader @2554
    _ZN20moTextureFilterIndex10ValidIndexEj @2555
    _ZN20moTextureFilterIndex11LoadFiltersEP11moTextArray @2556
    _ZN20moTextureFilterIndex11LoadFiltersEP7moParam @2557
    _ZN20moTextureFilterIndex11LoadFiltersEP8moConfigj @2558
    _ZN20moTextureFilterIndex15LoadDestTextureERK7moText0R14moTextureArrayjj @2559
    _ZN20moTextureFilterIndex15SetupDestTexFBOEv @2560
    _ZN20moTextureFilterIndex17LoadSourceTextureER7moText0R14moTextureArrayjRjS4_ @2561
    _ZN20moTextureFilterIndex19TextureFilterExistsEP7moValue @2562
    _ZN20moTextureFilterIndex21LoadDestTexResolutionERK7moText0RjS3_ @2563
    _ZN20moTextureFilterIndex26MakeTextureFilterLabelNameEP7moValue @2564
    _ZN20moTextureFilterIndex3AddEP15moTextureFilter @2565
    _ZN20moTextureFilterIndex4InitEP11moGLManagerP11moFBManagerP15moShaderManagerP16moTextureManagerP15moRenderManager @2566
    _ZN20moTextureFilterIndex4InitEP11moTextArrayP11moGLManagerP11moFBManagerP15moShaderManagerP16moTextureManagerP15moRenderManager @2567
    _ZN20moTextureFilterIndex4InitEP7moParamP11moGLManagerP11moFBManagerP15moShaderManagerP16moTextureManagerP15moRenderManager @2568
    _ZN20moTextureFilterIndex4InitEP8moConfigjP11moGLManagerP11moFBManagerP15moShaderManagerP16moTextureManagerP15moRenderManager @2569
    _ZN20moTextureFilterIndex5ApplyEP7moTempofP17moTextFilterParam @2570
    _ZN20moTextureFilterIndex5ApplyEjP7moTempofP17moTextFilterParam @2571
    _ZN20moTextureFilterIndex5ApplyEjffP17moTextFilterParam @2572
    _ZN20moTextureFilterIndex5ApplyEjjfP17moTextFilterParam @2573
    _ZN20moTextureFilterIndex6FinishEv @2574
    _ZN20moTextureFilterIndexC1Ev @2575
    _ZN20moTextureFilterIndexC2Ev @2576
    _ZN20moTextureFilterIndexD0Ev @2577
    _ZN20moTextureFilterIndexD1Ev @2578
    _ZN20moTextureFilterIndexD2Ev @2579
    _ZN21moCircularVideoBuffer10LoadSampleEP13moVideoSample @2580
    _ZN21moCircularVideoBuffer4InitE7moText0S0_P17moResourceManageriiiiiii @2581
    _ZN21moCircularVideoBuffer4InitEv @2582
    _ZN21moCircularVideoBuffer6FinishEv @2583
    _ZN21moCircularVideoBuffer8GetFrameEj @2584
    _ZN21moCircularVideoBufferC1Ev @2585
    _ZN21moCircularVideoBufferC2Ev @2586
    _ZN21moCircularVideoBufferD0Ev @2587
    _ZN21moCircularVideoBufferD1Ev @2588
    _ZN21moCircularVideoBufferD2Ev @2589
    _ZN21moMasterEffectFactoryD0Ev @2590
    _ZN21moMasterEffectFactoryD1Ev @2591
    _ZN21moMasterEffectFactoryD2Ev @2592
    _ZN21moTrackerFeatureArray3AddERKP16moTrackerFeature @2593
    _ZN21moTrackerFeatureArray3GetEi @2594
    _ZN21moTrackerFeatureArray3SetEiRKP16moTrackerFeature @2595
    _ZN21moTrackerFeatureArray4CopyERKS_ @2596
    _ZN21moTrackerFeatureArray4CopyERKS_ii @2597
    _ZN21moTrackerFeatureArray4InitEiP16moTrackerFeature @2598
    _ZN21moTrackerFeatureArray5CountEv @2599
    _ZN21moTrackerFeatureArray5EmptyEv @2600
    _ZN21moTrackerFeatureArray6FinishEv @2601
    _ZN21moTrackerFeatureArray6InsertEiRKP16moTrackerFeature @2602
    _ZN21moTrackerFeatureArray6RemoveEi @2603
    _ZN21moTrackerFeatureArrayC1ERKS_ @2604
    _ZN21moTrackerFeatureArrayC1Ei @2605
    _ZN21moTrackerFeatureArrayC1Ev @2606
    _ZN21moTrackerFeatureArrayC2ERKS_ @2607
    _ZN21moTrackerFeatureArrayC2Ei @2608
    _ZN21moTrackerFeatureArrayC2Ev @2609
    _ZN21moTrackerFeatureArrayD0Ev @2610
    _ZN21moTrackerFeatureArrayD1Ev @2611
    _ZN21moTrackerFeatureArrayD2Ev @2612
    _ZN21moTrackerFeatureArrayaSERKS_ @2613
    _ZN22moCircularVideoBuffers3AddERKP21moCircularVideoBuffer @2614
    _ZN22moCircularVideoBuffers3GetEi @2615
    _ZN22moCircularVideoBuffers3SetEiRKP21moCircularVideoBuffer @2616
    _ZN22moCircularVideoBuffers4CopyERKS_ @2617
    _ZN22moCircularVideoBuffers4CopyERKS_ii @2618
    _ZN22moCircularVideoBuffers4InitEiP21moCircularVideoBuffer @2619
    _ZN22moCircularVideoBuffers5CountEv @2620
    _ZN22moCircularVideoBuffers5EmptyEv @2621
    _ZN22moCircularVideoBuffers6FinishEv @2622
    _ZN22moCircularVideoBuffers6InsertEiRKP21moCircularVideoBuffer @2623
    _ZN22moCircularVideoBuffers6RemoveEi @2624
    _ZN22moCircularVideoBuffersC1ERKS_ @2625
    _ZN22moCircularVideoBuffersC1Ei @2626
    _ZN22moCircularVideoBuffersC1Ev @2627
    _ZN22moCircularVideoBuffersC2ERKS_ @2628
    _ZN22moCircularVideoBuffersC2Ei @2629
    _ZN22moCircularVideoBuffersC2Ev @2630
    _ZN22moCircularVideoBuffersD0Ev @2631
    _ZN22moCircularVideoBuffersD1Ev @2632
    _ZN22moCircularVideoBuffersD2Ev @2633
    _ZN22moCircularVideoBuffersaSERKS_ @2634
    _ZN22moDataSessionEventKeys3AddERKP21moDataSessionEventKey @2635
    _ZN22moDataSessionEventKeys3GetEi @2636
    _ZN22moDataSessionEventKeys3SetEiRKP21moDataSessionEventKey @2637
    _ZN22moDataSessionEventKeys4CopyERKS_ @2638
    _ZN22moDataSessionEventKeys4CopyERKS_ii @2639
    _ZN22moDataSessionEventKeys4InitEiP21moDataSessionEventKey @2640
    _ZN22moDataSessionEventKeys5CountEv @2641
    _ZN22moDataSessionEventKeys5EmptyEv @2642
    _ZN22moDataSessionEventKeys6FinishEv @2643
    _ZN22moDataSessionEventKeys6InsertEiRKP21moDataSessionEventKey @2644
    _ZN22moDataSessionEventKeys6RemoveEi @2645
    _ZN22moDataSessionEventKeysC1ERKS_ @2646
    _ZN22moDataSessionEventKeysC1Ei @2647
    _ZN22moDataSessionEventKeysC1Ev @2648
    _ZN22moDataSessionEventKeysC2ERKS_ @2649
    _ZN22moDataSessionEventKeysC2Ei @2650
    _ZN22moDataSessionEventKeysC2Ev @2651
    _ZN22moDataSessionEventKeysD0Ev @2652
    _ZN22moDataSessionEventKeysD1Ev @2653
    _ZN22moDataSessionEventKeysD2Ev @2654
    _ZN22moDataSessionEventKeysaSERKS_ @2655
    _ZN22moIODevicePluginsArray3AddERKP16moIODevicePlugin @2656
    _ZN22moIODevicePluginsArray3GetEi @2657
    _ZN22moIODevicePluginsArray3SetEiRKP16moIODevicePlugin @2658
    _ZN22moIODevicePluginsArray4CopyERKS_ @2659
    _ZN22moIODevicePluginsArray4CopyERKS_ii @2660
    _ZN22moIODevicePluginsArray4InitEiP16moIODevicePlugin @2661
    _ZN22moIODevicePluginsArray5CountEv @2662
    _ZN22moIODevicePluginsArray5EmptyEv @2663
    _ZN22moIODevicePluginsArray6FinishEv @2664
    _ZN22moIODevicePluginsArray6InsertEiRKP16moIODevicePlugin @2665
    _ZN22moIODevicePluginsArray6RemoveEi @2666
    _ZN22moIODevicePluginsArrayC1ERKS_ @2667
    _ZN22moIODevicePluginsArrayC1Ei @2668
    _ZN22moIODevicePluginsArrayC1Ev @2669
    _ZN22moIODevicePluginsArrayC2ERKS_ @2670
    _ZN22moIODevicePluginsArrayC2Ei @2671
    _ZN22moIODevicePluginsArrayC2Ev @2672
    _ZN22moIODevicePluginsArrayD0Ev @2673
    _ZN22moIODevicePluginsArrayD1Ev @2674
    _ZN22moIODevicePluginsArrayD2Ev @2675
    _ZN22moIODevicePluginsArrayaSERKS_ @2676
    _ZN22moNetConnectionManager4StopEP15moNetConnection @2677
    _ZN22moNetConnectionManager5StartEP15moNetConnection @2678
    _ZN22moNetConnectionManager7StopAllEv @2679
    _ZN22moNetConnectionManagerC1Ev @2680
    _ZN22moNetConnectionManagerC2Ev @2681
    _ZN22moNetConnectionManagerD0Ev @2682
    _ZN22moNetConnectionManagerD1Ev @2683
    _ZN22moNetConnectionManagerD2Ev @2684
    _ZN22moResourcePluginsArray3AddERKP16moResourcePlugin @2685
    _ZN22moResourcePluginsArray3GetEi @2686
    _ZN22moResourcePluginsArray3SetEiRKP16moResourcePlugin @2687
    _ZN22moResourcePluginsArray4CopyERKS_ @2688
    _ZN22moResourcePluginsArray4CopyERKS_ii @2689
    _ZN22moResourcePluginsArray4InitEiP16moResourcePlugin @2690
    _ZN22moResourcePluginsArray5CountEv @2691
    _ZN22moResourcePluginsArray5EmptyEv @2692
    _ZN22moResourcePluginsArray6FinishEv @2693
    _ZN22moResourcePluginsArray6InsertEiRKP16moResourcePlugin @2694
    _ZN22moResourcePluginsArray6RemoveEi @2695
    _ZN22moResourcePluginsArrayC1ERKS_ @2696
    _ZN22moResourcePluginsArrayC1Ei @2697
    _ZN22moResourcePluginsArrayC1Ev @2698
    _ZN22moResourcePluginsArrayC2ERKS_ @2699
    _ZN22moResourcePluginsArrayC2Ei @2700
    _ZN22moResourcePluginsArrayC2Ev @2701
    _ZN22moResourcePluginsArrayD0Ev @2702
    _ZN22moResourcePluginsArrayD1Ev @2703
    _ZN22moResourcePluginsArrayD2Ev @2704
    _ZN22moResourcePluginsArrayaSERKS_ @2705
    _ZN4moP510backgroundEf @2706
    _ZN4moP510backgroundEff @2707
    _ZN4moP510backgroundEfff @2708
    _ZN4moP510backgroundEffff @2709
    _ZN4moP510pushMatrixEv @2710
    _ZN4moP511resetMatrixEv @2711
    _ZN4moP512MO_P5_TWO_PIE @2712 DATA
    _ZN4moP512strokeWeightEf @2713
    _ZN4moP513MO_P5_HALF_PIE @2714 DATA
    _ZN4moP515convertHSLtoRGBEfffRfS0_S0_ @2715
    _ZN4moP516generateTmpColorEfff @2716
    _ZN4moP516generateTmpColorEffff @2717
    _ZN4moP53arcEffffff @2718
    _ZN4moP54fillEf @2719
    _ZN4moP54fillEff @2720
    _ZN4moP54fillEfff @2721
    _ZN4moP54fillEffff @2722
    _ZN4moP54lineEffff @2723
    _ZN4moP54lineEffffff @2724
    _ZN4moP54quadEffffffff @2725
    _ZN4moP54rectEffff @2726
    _ZN4moP55pointEff @2727
    _ZN4moP55pointEfff @2728
    _ZN4moP55scaleEf @2729
    _ZN4moP55scaleEff @2730
    _ZN4moP55scaleEfff @2731
    _ZN4moP56noFillEv @2732
    _ZN4moP56rotateEf @2733
    _ZN4moP56strokeEf @2734
    _ZN4moP56strokeEff @2735
    _ZN4moP56strokeEfff @2736
    _ZN4moP56strokeEffff @2737
    _ZN4moP57ellipseEffff @2738
    _ZN4moP58HuetoRGBEfff @2739
    _ZN4moP58MO_P5_PIE @2740 DATA
    _ZN4moP58noStrokeEv @2741
    _ZN4moP58triangleEffffff @2742
    _ZN4moP59colorModeEi @2743
    _ZN4moP59colorModeEif @2744
    _ZN4moP59colorModeEifff @2745
    _ZN4moP59colorModeEiffff @2746
    _ZN4moP59popMatrixEv @2747
    _ZN4moP59translateEff @2748
    _ZN4moP59translateEfff @2749
    _ZN4moP5C1Ev @2750
    _ZN4moP5C2Ev @2751
    _ZN5moFBO10AddTextureEjjRK10moTexParamjRj @2752
    _ZN5moFBO11CheckStatusEv @2753
    _ZN5moFBO13AttachTextureEjjRK10moTexParamjj @2754
    _ZN5moFBO14GetTextureGLIdEj @2755
    _ZN5moFBO14IsValidTextureEjjRK10moTexParam @2756
    _ZN5moFBO14SetDrawTextureEj @2757
    _ZN5moFBO14SetDrawTextureEjjjRK10moTexParamj @2758
    _ZN5moFBO14SetReadTextureEj @2759
    _ZN5moFBO14SetReadTextureEjjjRK10moTexParamj @2760
    _ZN5moFBO17ClearAttachementsEv @2761
    _ZN5moFBO19GetColorAttachPointEj @2762
    _ZN5moFBO21AddDepthStencilBufferEv @2763
    _ZN5moFBO21InitAttachPointsArrayEv @2764
    _ZN5moFBO24GetColorAttachPointIndexEj @2765
    _ZN5moFBO4BindEv @2766
    _ZN5moFBO4InitEP11moGLManager @2767
    _ZN5moFBO6FinishEv @2768
    _ZN5moFBO6UnbindEv @2769
    _ZN5moFBOC1Ev @2770
    _ZN5moFBOC2Ev @2771
    _ZN5moFBOD0Ev @2772
    _ZN5moFBOD1Ev @2773
    _ZN5moFBOD2Ev @2774
    _ZN6moData10SetMessageEP7moDatas @2775
    _ZN6moData10SetPointerEPhm @2776
    _ZN6moData10SetTextureEP9moTexture @2777
    _ZN6moData10TextToTypeE7moText0 @2778
    _ZN6moData10TypeToTextEv @2779
    _ZN6moData11SetMessagesEP14moDataMessages @2780
    _ZN6moData13TextureBufferEv @2781
    _ZN6moData14SetVideoBufferEP13moVideoBuffer @2782
    _ZN6moData16SetTextureBufferEP15moTextureBuffer @2783
    _ZN6moData16SetTextureFilterEP15moTextureFilter @2784
    _ZN6moData21SetTextureFilterAlphaEPS_ @2785
    _ZN6moData21SetTextureFilterParamEP17moTextFilterParam @2786
    _ZN6moData3FunEv @2787
    _ZN6moData3IntEv @2788
    _ZN6moData4CharEv @2789
    _ZN6moData4CopyERKS_ @2790
    _ZN6moData4FontEv @2791
    _ZN6moData4LongEv @2792
    _ZN6moData4SizeEv @2793
    _ZN6moData4TextEv @2794
    _ZN6moData4TypeEv @2795
    _ZN6moData5FloatEv @2796
    _ZN6moData5ModelEv @2797
    _ZN6moData6DoubleEv @2798
    _ZN6moData6NumberEv @2799
    _ZN6moData6SetFunEP14moMathFunction @2800
    _ZN6moData6SetIntEi @2801
    _ZN6moData6ToTextEv @2802
    _ZN6moData7GetDataEv @2803
    _ZN6moData7GetGLIdEP7moTempofP17moTextFilterParam @2804
    _ZN6moData7GetGLIdEfP17moTextFilterParam @2805
    _ZN6moData7GetGLIdEffP17moTextFilterParam @2806
    _ZN6moData7GetGLIdEjfP17moTextFilterParam @2807
    _ZN6moData7IsValidEv @2808
    _ZN6moData7MessageEv @2809
    _ZN6moData7PointerEv @2810
    _ZN6moData7SetCharEc @2811
    _ZN6moData7SetFontEP6moFont @2812
    _ZN6moData7SetLongEx @2813
    _ZN6moData7SetSizeEm @2814
    _ZN6moData7SetTextE7moText0 @2815
    _ZN6moData7SetTypeE10moDataType @2816
    _ZN6moData8MessagesEv @2817
    _ZN6moData8SetFloatEf @2818
    _ZN6moData8SetModelEP18mo3DModelSceneNode @2819
    _ZN6moData9SetDoubleEd @2820
    _ZN6moData9SetNumberE8moNumber @2821
    _ZN6moDataC1E10moDataType @2822
    _ZN6moDataC1E7moText0 @2823
    _ZN6moDataC1EPhm10moDataType @2824
    _ZN6moDataC1Ec @2825
    _ZN6moDataC1Ed @2826
    _ZN6moDataC1Ef @2827
    _ZN6moDataC1Ei @2828
    _ZN6moDataC1Ev @2829
    _ZN6moDataC1Ex @2830
    _ZN6moDataC2E10moDataType @2831
    _ZN6moDataC2E7moText0 @2832
    _ZN6moDataC2EPhm10moDataType @2833
    _ZN6moDataC2Ec @2834
    _ZN6moDataC2Ed @2835
    _ZN6moDataC2Ef @2836
    _ZN6moDataC2Ei @2837
    _ZN6moDataC2Ev @2838
    _ZN6moDataC2Ex @2839
    _ZN6moDataD0Ev @2840
    _ZN6moDataD1Ev @2841
    _ZN6moDataD2Ev @2842
    _ZN6moDataaSERKS_ @2843
    _ZN6moFile11GetFileNameEv @2844
    _ZN6moFile11GetProtocolEv @2845
    _ZN6moFile12GetExtensionEv @2846
    _ZN6moFile15GetCompletePathEv @2847
    _ZN6moFile15SetCompletePathE7moText0 @2848
    _ZN6moFile4InitEv @2849
    _ZN6moFile6ExistsEv @2850
    _ZN6moFile6FinishEv @2851
    _ZN6moFile6UpdateEv @2852
    _ZN6moFile7GetDataEv @2853
    _ZN6moFile7GetPathEv @2854
    _ZN6moFile7GetTypeEv @2855
    _ZN6moFile7SetTypeE10moFileType @2856
    _ZN6moFile8IsRemoteEv @2857
    _ZN6moFile9GetStatusEv @2858
    _ZN6moFileC1E7moText0 @2859
    _ZN6moFileC1Ev @2860
    _ZN6moFileC2E7moText0 @2861
    _ZN6moFileC2Ev @2862
    _ZN6moFileD0Ev @2863
    _ZN6moFileD1Ev @2864
    _ZN6moFileD2Ev @2865
    _ZN6moFont17SetStringRotationEf @2866
    _ZN6moFont18SetForegroundColorEfff @2867
    _ZN6moFont26SetHorizontalJustificationEi @2868
    _ZN6moFont4DrawEffR7moText0 @2869
    _ZN6moFont4DrawEffR7moText0fifff @2870
    _ZN6moFont4InitE10moFontType7moText0ij @2871
    _ZN6moFont4InitEv @2872
    _ZN6moFont6FinishEv @2873
    _ZN6moFont7GetNameEv @2874
    _ZN6moFont7SetSizeEf @2875
    _ZN6moFont7glPrintEiiPcifff @2876
    _ZN6moFont8KillFontEv @2877
    _ZN6moFont9BuildFontEv @2878
    _ZN6moFontC1Ev @2879
    _ZN6moFontC2Ev @2880
    _ZN6moFontD0Ev @2881
    _ZN6moFontD1Ev @2882
    _ZN6moFontD2Ev @2883
    _ZN6moLock4LockEv @2884
    _ZN6moLock6UnlockEv @2885
    _ZN6moLockC1Ev @2886
    _ZN6moLockC2Ev @2887
    _ZN6moLockD1Ev @2888
    _ZN6moLockD2Ev @2889
    _ZN6moMathIdE10DEG_TO_RADE @2890 DATA
    _ZN6moMathIdE10INV_TWO_PIE @2891 DATA
    _ZN6moMathIdE10RAD_TO_DEGE @2892 DATA
    _ZN6moMathIdE10UnitRandomEd @2893
    _ZN6moMathIdE10UnitRandomEj @2894
    _ZN6moMathIdE11FastInvCos0Ed @2895
    _ZN6moMathIdE11FastInvCos1Ed @2896
    _ZN6moMathIdE11FastInvSin0Ed @2897
    _ZN6moMathIdE11FastInvSin1Ed @2898
    _ZN6moMathIdE11FastInvSqrtEd @2899
    _ZN6moMathIdE11FastInvTan0Ed @2900
    _ZN6moMathIdE11FastInvTan1Ed @2901
    _ZN6moMathIdE11FastNegExp0Ed @2902
    _ZN6moMathIdE11FastNegExp1Ed @2903
    _ZN6moMathIdE11FastNegExp2Ed @2904
    _ZN6moMathIdE11FastNegExp3Ed @2905
    _ZN6moMathIdE12IsPowerOfTwoEi @2906
    _ZN6moMathIdE14IntervalRandomEddd @2907
    _ZN6moMathIdE14IntervalRandomEddj @2908
    _ZN6moMathIdE14ZERO_TOLERANCEE @2909 DATA
    _ZN6moMathIdE15SymmetricRandomEd @2910
    _ZN6moMathIdE15SymmetricRandomEj @2911
    _ZN6moMathIdE16Log2OfPowerOfTwoEj @2912
    _ZN6moMathIdE16ScaledFloatToIntEfi @2913
    _ZN6moMathIdE2PIE @2914 DATA
    _ZN6moMathIdE3CosEd @2915
    _ZN6moMathIdE3ExpEd @2916
    _ZN6moMathIdE3LogEd @2917
    _ZN6moMathIdE3PowEdd @2918
    _ZN6moMathIdE3SinEd @2919
    _ZN6moMathIdE3SqrEd @2920
    _ZN6moMathIdE3TanEd @2921
    _ZN6moMathIdE4ACosEd @2922
    _ZN6moMathIdE4ASinEd @2923
    _ZN6moMathIdE4ATanEd @2924
    _ZN6moMathIdE4CeilEd @2925
    _ZN6moMathIdE4FAbsEd @2926
    _ZN6moMathIdE4FModEdd @2927
    _ZN6moMathIdE4LN_2E @2928 DATA
    _ZN6moMathIdE4Log2Ed @2929
    _ZN6moMathIdE4SignEd @2930
    _ZN6moMathIdE4SignEi @2931
    _ZN6moMathIdE4SqrtEd @2932
    _ZN6moMathIdE5ATan2Edd @2933
    _ZN6moMathIdE5FloorEd @2934
    _ZN6moMathIdE5LN_10E @2935 DATA
    _ZN6moMathIdE5Log10Ed @2936
    _ZN6moMathIdE6INV_PIE @2937 DATA
    _ZN6moMathIdE6TWO_PIE @2938 DATA
    _ZN6moMathIdE7EPSILONE @2939 DATA
    _ZN6moMathIdE7HALF_PIE @2940 DATA
    _ZN6moMathIdE7InvSqrtEd @2941
    _ZN6moMathIdE8DegToRadEd @2942
    _ZN6moMathIdE8FastCos0Ed @2943
    _ZN6moMathIdE8FastCos1Ed @2944
    _ZN6moMathIdE8FastSin0Ed @2945
    _ZN6moMathIdE8FastSin1Ed @2946
    _ZN6moMathIdE8FastTan0Ed @2947
    _ZN6moMathIdE8FastTan1Ed @2948
    _ZN6moMathIdE8INV_LN_2E @2949 DATA
    _ZN6moMathIdE8MAX_REALE @2950 DATA
    _ZN6moMathIdE8RadToDegEd @2951
    _ZN6moMathIdE9INV_LN_10E @2952 DATA
    _ZN6moMathIdEC1Ev @2953
    _ZN6moMathIdEC2Ev @2954
    _ZN6moMathIdED1Ev @2955
    _ZN6moMathIdED2Ev @2956
    _ZN6moMathIfE10DEG_TO_RADE @2957 DATA
    _ZN6moMathIfE10INV_TWO_PIE @2958 DATA
    _ZN6moMathIfE10RAD_TO_DEGE @2959 DATA
    _ZN6moMathIfE10UnitRandomEf @2960
    _ZN6moMathIfE10UnitRandomEj @2961
    _ZN6moMathIfE11FastInvCos0Ef @2962
    _ZN6moMathIfE11FastInvCos1Ef @2963
    _ZN6moMathIfE11FastInvSin0Ef @2964
    _ZN6moMathIfE11FastInvSin1Ef @2965
    _ZN6moMathIfE11FastInvSqrtEf @2966
    _ZN6moMathIfE11FastInvTan0Ef @2967
    _ZN6moMathIfE11FastInvTan1Ef @2968
    _ZN6moMathIfE11FastNegExp0Ef @2969
    _ZN6moMathIfE11FastNegExp1Ef @2970
    _ZN6moMathIfE11FastNegExp2Ef @2971
    _ZN6moMathIfE11FastNegExp3Ef @2972
    _ZN6moMathIfE12IsPowerOfTwoEi @2973
    _ZN6moMathIfE14IntervalRandomEfff @2974
    _ZN6moMathIfE14IntervalRandomEffj @2975
    _ZN6moMathIfE14ZERO_TOLERANCEE @2976 DATA
    _ZN6moMathIfE15SymmetricRandomEf @2977
    _ZN6moMathIfE15SymmetricRandomEj @2978
    _ZN6moMathIfE16Log2OfPowerOfTwoEj @2979
    _ZN6moMathIfE16ScaledFloatToIntEfi @2980
    _ZN6moMathIfE2PIE @2981 DATA
    _ZN6moMathIfE3CosEf @2982
    _ZN6moMathIfE3ExpEf @2983
    _ZN6moMathIfE3LogEf @2984
    _ZN6moMathIfE3PowEff @2985
    _ZN6moMathIfE3SinEf @2986
    _ZN6moMathIfE3SqrEf @2987
    _ZN6moMathIfE3TanEf @2988
    _ZN6moMathIfE4ACosEf @2989
    _ZN6moMathIfE4ASinEf @2990
    _ZN6moMathIfE4ATanEf @2991
    _ZN6moMathIfE4CeilEf @2992
    _ZN6moMathIfE4FAbsEf @2993
    _ZN6moMathIfE4FModEff @2994
    _ZN6moMathIfE4LN_2E @2995 DATA
    _ZN6moMathIfE4Log2Ef @2996
    _ZN6moMathIfE4SignEf @2997
    _ZN6moMathIfE4SignEi @2998
    _ZN6moMathIfE4SqrtEf @2999
    _ZN6moMathIfE5ATan2Eff @3000
    _ZN6moMathIfE5FloorEf @3001
    _ZN6moMathIfE5LN_10E @3002 DATA
    _ZN6moMathIfE5Log10Ef @3003
    _ZN6moMathIfE6INV_PIE @3004 DATA
    _ZN6moMathIfE6TWO_PIE @3005 DATA
    _ZN6moMathIfE7EPSILONE @3006 DATA
    _ZN6moMathIfE7HALF_PIE @3007 DATA
    _ZN6moMathIfE7InvSqrtEf @3008
    _ZN6moMathIfE8DegToRadEf @3009
    _ZN6moMathIfE8FastCos0Ef @3010
    _ZN6moMathIfE8FastCos1Ef @3011
    _ZN6moMathIfE8FastSin0Ef @3012
    _ZN6moMathIfE8FastSin1Ef @3013
    _ZN6moMathIfE8FastTan0Ef @3014
    _ZN6moMathIfE8FastTan1Ef @3015
    _ZN6moMathIfE8INV_LN_2E @3016 DATA
    _ZN6moMathIfE8MAX_REALE @3017 DATA
    _ZN6moMathIfE8RadToDegEf @3018
    _ZN6moMathIfE9INV_LN_10E @3019 DATA
    _ZN6moMathIfEC1Ev @3020
    _ZN6moMathIfEC2Ev @3021
    _ZN6moMathIfED1Ev @3022
    _ZN6moMathIfED2Ev @3023
    _ZN7moDatas3AddERK6moData @3024
    _ZN7moDatas3GetEi @3025
    _ZN7moDatas3SetEiRK6moData @3026
    _ZN7moDatas4CopyERKS_ @3027
    _ZN7moDatas4CopyERKS_ii @3028
    _ZN7moDatas4InitEi6moData @3029
    _ZN7moDatas5CountEv @3030
    _ZN7moDatas5EmptyEv @3031
    _ZN7moDatas6FinishEv @3032
    _ZN7moDatas6InsertEiRK6moData @3033
    _ZN7moDatas6RemoveEi @3034
    _ZN7moDatasC1ERKS_ @3035
    _ZN7moDatasC1Ei @3036
    _ZN7moDatasC1Ev @3037
    _ZN7moDatasC2ERKS_ @3038
    _ZN7moDatasC2Ei @3039
    _ZN7moDatasC2Ev @3040
    _ZN7moDatasD0Ev @3041
    _ZN7moDatasD1Ev @3042
    _ZN7moDatasD2Ev @3043
    _ZN7moDatasaSERKS_ @3044
    _ZN7moDebug3LogE7moText0 @3045
    _ZN7moDebug4PushE7moText0 @3046
    _ZN7moDebug5ErrorE7moText0 @3047
    _ZN7moDebug7MessageE7moText0 @3048
    _ZN7moDebugD0Ev @3049
    _ZN7moDebugD1Ev @3050
    _ZN7moEventC1EiiiPh @3051
    _ZN7moEventC1EiiiiiiPh @3052
    _ZN7moEventC1Ev @3053
    _ZN7moEventC2EiiiPh @3054
    _ZN7moEventC2EiiiiiiPh @3055
    _ZN7moEventC2Ev @3056
    _ZN7moEventD0Ev @3057
    _ZN7moEventD1Ev @3058
    _ZN7moEventD2Ev @3059
    _ZN7moFonts3AddERKP6moFont @3060
    _ZN7moFonts3GetEi @3061
    _ZN7moFonts3SetEiRKP6moFont @3062
    _ZN7moFonts4CopyERKS_ @3063
    _ZN7moFonts4CopyERKS_ii @3064
    _ZN7moFonts4InitEiP6moFont @3065
    _ZN7moFonts5CountEv @3066
    _ZN7moFonts5EmptyEv @3067
    _ZN7moFonts6FinishEv @3068
    _ZN7moFonts6InsertEiRKP6moFont @3069
    _ZN7moFonts6RemoveEi @3070
    _ZN7moFontsC1ERKS_ @3071
    _ZN7moFontsC1Ei @3072
    _ZN7moFontsC1Ev @3073
    _ZN7moFontsC2ERKS_ @3074
    _ZN7moFontsC2Ei @3075
    _ZN7moFontsC2Ev @3076
    _ZN7moFontsD0Ev @3077
    _ZN7moFontsD1Ev @3078
    _ZN7moFontsD2Ev @3079
    _ZN7moFontsaSERKS_ @3080
    _ZN7moInletC1Ev @3081
    _ZN7moInletC2Ev @3082
    _ZN7moInletD0Ev @3083
    _ZN7moInletD1Ev @3084
    _ZN7moInletD2Ev @3085
    _ZN7moLuaP510backgroundEP9lua_State @3086
    _ZN7moLuaP510pushMatrixEP9lua_State @3087
    _ZN7moLuaP511resetMatrixEP9lua_State @3088
    _ZN7moLuaP512strokeWeightEP9lua_State @3089
    _ZN7moLuaP53PPIEP9lua_State @3090
    _ZN7moLuaP53arcEP9lua_State @3091
    _ZN7moLuaP54PHSBEP9lua_State @3092
    _ZN7moLuaP54PRGBEP9lua_State @3093
    _ZN7moLuaP54fillEP9lua_State @3094
    _ZN7moLuaP54lineEP9lua_State @3095
    _ZN7moLuaP54quadEP9lua_State @3096
    _ZN7moLuaP54rectEP9lua_State @3097
    _ZN7moLuaP55pointEP9lua_State @3098
    _ZN7moLuaP55scaleEP9lua_State @3099
    _ZN7moLuaP56noFillEP9lua_State @3100
    _ZN7moLuaP56rotateEP9lua_State @3101
    _ZN7moLuaP56strokeEP9lua_State @3102
    _ZN7moLuaP57PTWO_PIEP9lua_State @3103
    _ZN7moLuaP57ellipseEP9lua_State @3104
    _ZN7moLuaP57methodsE @3105 DATA
    _ZN7moLuaP58PHALF_PIEP9lua_State @3106
    _ZN7moLuaP58noStrokeEP9lua_State @3107
    _ZN7moLuaP58triangleEP9lua_State @3108
    _ZN7moLuaP59classNameE @3109 DATA
    _ZN7moLuaP59colorModeEP9lua_State @3110
    _ZN7moLuaP59popMatrixEP9lua_State @3111
    _ZN7moLuaP59translateEP9lua_State @3112
    _ZN7moLuaP5C1EP9lua_State @3113
    _ZN7moLuaP5C2EP9lua_State @3114
    _ZN7moMovie11EnableAudioEi @3115
    _ZN7moMovie11EnableVideoEi @3116
    _ZN7moMovie13LoadMovieFileE7moText0 @3117
    _ZN7moMovie13SupportedFileE7moText0 @3118
    _ZN7moMovie4InitE7moText0jP17moResourceManager10moTexParam @3119
    _ZN7moMovie4LoadEP7moParam @3120
    _ZN7moMovie4LoadEP7moValue @3121
    _ZN7moMovie6FinishEv @3122
    _ZN7moMovie8GetFrameEj @3123
    _ZN7moMovieC1Ev @3124
    _ZN7moMovieC2Ev @3125
    _ZN7moMovieD0Ev @3126
    _ZN7moMovieD1Ev @3127
    _ZN7moMovieD2Ev @3128
    _ZN7moParam10FirstValueEv @3129
    _ZN7moParam11DeleteValueEi @3130
    _ZN7moParam13GetIndexValueEv @3131
    _ZN7moParam13SetExternDataEP6moData @3132
    _ZN7moParam13SetIndexValueEi @3133
    _ZN7moParam14GetValuesCountEv @3134
    _ZN7moParam15SetDefaultValueEv @3135
    _ZN7moParam18GetParamDefinitionEv @3136
    _ZN7moParam18SetParamDefinitionER17moParamDefinition @3137
    _ZN7moParam6GetPtrEv @3138
    _ZN7moParam6UpdateEv @3139
    _ZN7moParam7GetDataEv @3140
    _ZN7moParam8AddValueER7moValue @3141
    _ZN7moParam8GetValueEi @3142
    _ZN7moParam9GetValuesEv @3143
    _ZN7moParam9NextValueEv @3144
    _ZN7moParam9PrevValueEv @3145
    _ZN7moParamC1ER17moParamDefinition @3146
    _ZN7moParamC1ERKS_ @3147
    _ZN7moParamC1Ev @3148
    _ZN7moParamC2ER17moParamDefinition @3149
    _ZN7moParamC2ERKS_ @3150
    _ZN7moParamC2Ev @3151
    _ZN7moParamD0Ev @3152
    _ZN7moParamD1Ev @3153
    _ZN7moParamD2Ev @3154
    _ZN7moParamaSERKS_ @3155
    _ZN7moSound10BuildEmptyEj @3156
    _ZN7moSound10PlaySampleEi @3157
    _ZN7moSound11SetPositionEfff @3158
    _ZN7moSound11SetVelocityEfff @3159
    _ZN7moSound12SetDirectionEfff @3160
    _ZN7moSound13BuildFromFileE7moText0 @3161
    _ZN7moSound15BuildFromBufferEjPv @3162
    _ZN7moSound4InitE7moText0j11moSoundTypeP17moResourceManager12moSoundParam @3163
    _ZN7moSound4PlayEv @3164
    _ZN7moSound4StopEv @3165
    _ZN7moSound5FinalEv @3166
    _ZN7moSound5FrameEi @3167
    _ZN7moSound5PauseEv @3168
    _ZN7moSound5StateEv @3169
    _ZN7moSound6FinishEv @3170
    _ZN7moSound6RepeatEi @3171
    _ZN7moSound6RewindEv @3172
    _ZN7moSound6UpdateEv @3173
    _ZN7moSound9GetVolumeEv @3174
    _ZN7moSound9SetVolumeEf @3175
    _ZN7moSoundC1Ev @3176
    _ZN7moSoundC2Ev @3177
    _ZN7moSoundD0Ev @3178
    _ZN7moSoundD1Ev @3179
    _ZN7moSoundD2Ev @3180
    _ZN7moTempo12SetFromTempoEPS_ @3181
    _ZN7moTempo12getFromTempoEv @3182
    _ZN7moTempo17getPrincipalAngleEv @3183
    _ZN7moTempo20getInterpolatedTempoEf @3184
    _ZN7moTempo4InitEd @3185
    _ZN7moTempo4InitEv @3186
    _ZN7moTempo8getTempoEv @3187
    _ZN7moTempo9BeatPulseEm @3188
    _ZN7moTempoC1Ev @3189
    _ZN7moTempoC2Ev @3190
    _ZN7moText011ReplaceCharEPKcS1_ @3191
    _ZN7moText03MidEjj @3192
    _ZN7moText04LeftEj @3193
    _ZN7moText04ScanEPc @3194
    _ZN7moText04TrimEv @3195
    _ZN7moText05LTrimEv @3196
    _ZN7moText05RTrimEv @3197
    _ZN7moText05RightEj @3198
    _ZN7moText05ShortEv @3199
    _ZN7moText06DeleteEjj @3200
    _ZN7moText06InsertEPcj @3201
    _ZN7moText06ScanExEPc @3202
    _ZN7moText07ReplaceERKS_S1_ @3203
    _ZN7moText07SubTextEjj @3204
    _ZN7moText07ToLowerEv @3205
    _ZN7moText07ToUpperEv @3206
    _ZN7moText07txtcompEPKcjj @3207
    _ZN7moText07txtcopyEPKcjjj @3208
    _ZN7moText07txtcopyEPKsjjj @3209
    _ZN7moText07txtfindEPKc7txtpertji @3210
    _ZN7moText0C1EPKc @3211
    _ZN7moText0C1EPc @3212
    _ZN7moText0C1ERKS_ @3213
    _ZN7moText0C1Ev @3214
    _ZN7moText0C2EPKc @3215
    _ZN7moText0C2EPc @3216
    _ZN7moText0C2ERKS_ @3217
    _ZN7moText0C2Ev @3218
    _ZN7moText0D0Ev @3219
    _ZN7moText0D1Ev @3220
    _ZN7moText0D2Ev @3221
    _ZN7moText0aSEPc @3222
    _ZN7moText0aSEPs @3223
    _ZN7moText0aSERKS_ @3224
    _ZN7moText0cvPcEv @3225
    _ZN7moText0eqEPc @3226
    _ZN7moText0eqERS_ @3227
    _ZN7moText0geEPc @3228
    _ZN7moText0geERS_ @3229
    _ZN7moText0gtEPc @3230
    _ZN7moText0gtERS_ @3231
    _ZN7moText0leEPc @3232
    _ZN7moText0leERS_ @3233
    _ZN7moText0ltEPc @3234
    _ZN7moText0ltERS_ @3235
    _ZN7moText0neEPc @3236
    _ZN7moText0neERS_ @3237
    _ZN7moText0pLEPc @3238
    _ZN7moText0pLERKS_ @3239
    _ZN7moText0plERKS_ @3240
    _ZN7moTimer11SetDurationEm @3241
    _ZN7moTimer3FixEv @3242
    _ZN7moTimer5StartEv @3243
    _ZN7moTimer8DurationEv @3244
    _ZN7moValue11AddSubValueERK11moValueBase @3245
    _ZN7moValue11AddSubValueERK7moText0S2_ @3246
    _ZN7moValue14RemoveSubValueEi @3247
    _ZN7moValue15RemoveSubValuesEb @3248
    _ZN7moValueC1ERK7moText0S2_ @3249
    _ZN7moValueC1ERK7moText0S2_S2_S2_ @3250
    _ZN7moValueC1ERK7moText0S2_S2_S2_S2_S2_ @3251
    _ZN7moValueC1ERK7moText0S2_S2_S2_S2_S2_S2_S2_ @3252
    _ZN7moValueC1ERKS_ @3253
    _ZN7moValueC1Ev @3254
    _ZN7moValueC2ERK7moText0S2_ @3255
    _ZN7moValueC2ERK7moText0S2_S2_S2_ @3256
    _ZN7moValueC2ERK7moText0S2_S2_S2_S2_S2_ @3257
    _ZN7moValueC2ERK7moText0S2_S2_S2_S2_S2_S2_S2_ @3258
    _ZN7moValueC2ERKS_ @3259
    _ZN7moValueC2Ev @3260
    _ZN7moValueD0Ev @3261
    _ZN7moValueD1Ev @3262
    _ZN7moValueD2Ev @3263
    _ZN7moValueaSERKS_ @3264
    _ZN8CLoad3DS12ReadVerticesEP10mo3dObjectP6tChunk @3265
    _ZN8CLoad3DS14ComputeNormalsEP9mo3dModel @3266
    _ZN8CLoad3DS14ReadColorChunkEP14moMaterialInfoP6tChunki @3267
    _ZN8CLoad3DS16ProcessNextChunkEP9mo3dModelP6tChunk @3268
    _ZN8CLoad3DS17ReadUVCoordinatesEP10mo3dObjectP6tChunk @3269
    _ZN8CLoad3DS17ReadVertexIndicesEP10mo3dObjectP6tChunk @3270
    _ZN8CLoad3DS18ReadObjectMaterialEP9mo3dModelP10mo3dObjectP6tChunk @3271
    _ZN8CLoad3DS22ProcessNextObjectChunkEP9mo3dModelP10mo3dObjectP6tChunk @3272
    _ZN8CLoad3DS24ProcessNextMaterialChunkEP9mo3dModelP6tChunk @3273
    _ZN8CLoad3DS7CleanUpEv @3274
    _ZN8CLoad3DS9GetStringEPc @3275
    _ZN8CLoad3DS9Import3DSEP9mo3dModelPc @3276
    _ZN8CLoad3DS9ReadChunkEP6tChunk @3277
    _ZN8CLoad3DSC1Ev @3278
    _ZN8CLoad3DSC2Ev @3279
    _ZN8moBucket11BuildBucketEli @3280
    _ZN8moBucket11EmptyBucketEv @3281
    _ZN8moBucket12AttachBucketEPS_ @3282
    _ZN8moBucket17GetAttachedBucketEv @3283
    _ZN8moBucket4CopyElPh @3284
    _ZN8moBucket4LockEv @3285
    _ZN8moBucket6UnlockEv @3286
    _ZN8moBucket7GetSizeEv @3287
    _ZN8moBucket9GetBufferEv @3288
    _ZN8moBucket9SetBufferElPh @3289
    _ZN8moBucketC1Ev @3290
    _ZN8moBucketC2Ev @3291
    _ZN8moBucketD0Ev @3292
    _ZN8moBucketD1Ev @3293
    _ZN8moBucketD2Ev @3294
    _ZN8moConfig10FirstParamEv @3295
    _ZN8moConfig10FirstValueEv @3296
    _ZN8moConfig10LoadConfigE7moText0 @3297
    _ZN8moConfig10SaveConfigE7moText0 @3298
    _ZN8moConfig11DeleteValueEii @3299
    _ZN8moConfig11GetFullTextEv @3300
    _ZN8moConfig11InsertValueEiiR7moValue @3301
    _ZN8moConfig11PreConfNextEv @3302
    _ZN8moConfig11PreConfPrevEv @3303
    _ZN8moConfig12AddPreconfigER18moPreconfigIndexes @3304
    _ZN8moConfig12DeleteConfigEv @3305
    _ZN8moConfig12PreConfFirstEv @3306
    _ZN8moConfig12SetPreconfigEiR18moPreconfigIndexes @3307
    _ZN8moConfig12UnloadConfigEv @3308
    _ZN8moConfig13CreateDefaultE7moText0 @3309
    _ZN8moConfig13GetParamIndexE7moText0 @3310
    _ZN8moConfig13PreviousValueEv @3311
    _ZN8moConfig14GetParamsCountEv @3312
    _ZN8moConfig14GetValuesCountEi @3313
    _ZN8moConfig14IsConfigLoadedEv @3314
    _ZN8moConfig15DeletePreconfigEi @3315
    _ZN8moConfig15GetCurrentParamEv @3316
    _ZN8moConfig15GetCurrentValueEv @3317
    _ZN8moConfig15GetPreConfCountEv @3318
    _ZN8moConfig15InsertPreconfigEiR18moPreconfigIndexes @3319
    _ZN8moConfig17GetCurrentPreConfEv @3320
    _ZN8moConfig17SetCurrentPreConfEi @3321
    _ZN8moConfig19GetConfigDefinitionEv @3322
    _ZN8moConfig20GetCurrentParamIndexEv @3323
    _ZN8moConfig20GetCurrentValueIndexEi @3324
    _ZN8moConfig20SetCurrentParamIndexEi @3325
    _ZN8moConfig20SetCurrentValueIndexEii @3326
    _ZN8moConfig8AddValueEiR7moValue @3327
    _ZN8moConfig8GetParamE7moText0 @3328
    _ZN8moConfig8GetParamEi @3329
    _ZN8moConfig8SetValueEiiR7moValue @3330
    _ZN8moConfig9GetParamsEv @3331
    _ZN8moConfig9NextParamEv @3332
    _ZN8moConfig9NextValueEv @3333
    _ZN8moConfig9PrevParamEv @3334
    _ZN8moConfigC1Ev @3335
    _ZN8moConfigC2Ev @3336
    _ZN8moConfigD0Ev @3337
    _ZN8moConfigD1Ev @3338
    _ZN8moConfigD2Ev @3339
    _ZN8moConfigixE7moText0 @3340
    _ZN8moCoords3AddERK7moCoord @3341
    _ZN8moCoords3GetEi @3342
    _ZN8moCoords3SetEiRK7moCoord @3343
    _ZN8moCoords4CopyERKS_ @3344
    _ZN8moCoords4CopyERKS_ii @3345
    _ZN8moCoords4InitEi7moCoord @3346
    _ZN8moCoords5CountEv @3347
    _ZN8moCoords5EmptyEv @3348
    _ZN8moCoords6FinishEv @3349
    _ZN8moCoords6InsertEiRK7moCoord @3350
    _ZN8moCoords6RemoveEi @3351
    _ZN8moCoordsC1ERKS_ @3352
    _ZN8moCoordsC1Ei @3353
    _ZN8moCoordsC1Ev @3354
    _ZN8moCoordsC2ERKS_ @3355
    _ZN8moCoordsC2Ei @3356
    _ZN8moCoordsC2Ev @3357
    _ZN8moCoordsD0Ev @3358
    _ZN8moCoordsD1Ev @3359
    _ZN8moCoordsD2Ev @3360
    _ZN8moCoordsaSERKS_ @3361
    _ZN8moCurve2IdE15SetTimeIntervalEdd @3362
    _ZN8moCurve2IdE9PointListC1ERK9moVector2IdEPS1_ @3363
    _ZN8moCurve2IdE9PointListC2ERK9moVector2IdEPS1_ @3364
    _ZN8moCurve2IdEC1Edd @3365
    _ZN8moCurve2IdEC2Edd @3366
    _ZN8moCurve2IdED0Ev @3367
    _ZN8moCurve2IdED1Ev @3368
    _ZN8moCurve2IdED2Ev @3369
    _ZN8moCurve2IfE15SetTimeIntervalEff @3370
    _ZN8moCurve2IfE9PointListC1ERK9moVector2IfEPS1_ @3371
    _ZN8moCurve2IfE9PointListC2ERK9moVector2IfEPS1_ @3372
    _ZN8moCurve2IfEC1Eff @3373
    _ZN8moCurve2IfEC2Eff @3374
    _ZN8moCurve2IfED0Ev @3375
    _ZN8moCurve2IfED1Ev @3376
    _ZN8moCurve2IfED2Ev @3377
    _ZN8moCurve3IdE15SetTimeIntervalEdd @3378
    _ZN8moCurve3IdE9PointListC1ERK9moVector3IdEPS1_ @3379
    _ZN8moCurve3IdE9PointListC2ERK9moVector3IdEPS1_ @3380
    _ZN8moCurve3IdEC1Edd @3381
    _ZN8moCurve3IdEC2Edd @3382
    _ZN8moCurve3IdED0Ev @3383
    _ZN8moCurve3IdED1Ev @3384
    _ZN8moCurve3IdED2Ev @3385
    _ZN8moCurve3IfE15SetTimeIntervalEff @3386
    _ZN8moCurve3IfE9PointListC1ERK9moVector3IfEPS1_ @3387
    _ZN8moCurve3IfE9PointListC2ERK9moVector3IfEPS1_ @3388
    _ZN8moCurve3IfEC1Eff @3389
    _ZN8moCurve3IfEC2Eff @3390
    _ZN8moCurve3IfED0Ev @3391
    _ZN8moCurve3IfED1Ev @3392
    _ZN8moCurve3IfED2Ev @3393
    _ZN8moEffect11InteractionEP17moIODeviceManager @3394
    _ZN8moEffect11SetBlendingE15moBlendingModes @3395
    _ZN8moEffect13GetDefinitionEP18moConfigDefinition @3396
    _ZN8moEffect13SwitchEnabledEv @3397
    _ZN8moEffect14SetPolygonModeE14moPolygonModes @3398
    _ZN8moEffect6EnableEv @3399
    _ZN8moEffect6TurnOnEv @3400
    _ZN8moEffect7DisableEv @3401
    _ZN8moEffect7PreDrawEP7moTempoP13moEffectState @3402
    _ZN8moEffect7PreInitEv @3403
    _ZN8moEffect7TurnOffEv @3404
    _ZN8moEffect8SetColorER7moValueS1_R13moEffectState @3405
    _ZN8moEffect8SwitchOnEv @3406
    _ZN8moEffect9LoadCodesEP17moIODeviceManager @3407
    _ZN8moEffect9PreFinishEv @3408
    _ZN8moEffectC1Ev @3409
    _ZN8moEffectC2Ev @3410
    _ZN8moEffectD0Ev @3411
    _ZN8moEffectD1Ev @3412
    _ZN8moEffectD2Ev @3413
    _ZN8moInlets3AddERKP7moInlet @3414
    _ZN8moInlets3GetEi @3415
    _ZN8moInlets3SetEiRKP7moInlet @3416
    _ZN8moInlets4CopyERKS_ @3417
    _ZN8moInlets4CopyERKS_ii @3418
    _ZN8moInlets4InitEiP7moInlet @3419
    _ZN8moInlets5CountEv @3420
    _ZN8moInlets5EmptyEv @3421
    _ZN8moInlets6FinishEv @3422
    _ZN8moInlets6InsertEiRKP7moInlet @3423
    _ZN8moInlets6RemoveEi @3424
    _ZN8moInletsC1ERKS_ @3425
    _ZN8moInletsC1Ei @3426
    _ZN8moInletsC1Ev @3427
    _ZN8moInletsC2ERKS_ @3428
    _ZN8moInletsC2Ei @3429
    _ZN8moInletsC2Ev @3430
    _ZN8moInletsD0Ev @3431
    _ZN8moInletsD1Ev @3432
    _ZN8moInletsD2Ev @3433
    _ZN8moInletsaSERKS_ @3434
    _ZN8moMotion4movxER7moParamR7moTempo @3435
    _ZN8moMotion4movxER7moParamd @3436
    _ZN8moMotion4movyER7moParamR7moTempo @3437
    _ZN8moMotion4movyER7moParamd @3438
    _ZN8moMotion4movzER7moParamR7moTempo @3439
    _ZN8moMotion4movzER7moParamd @3440
    _ZN8moMotion6movBucEcidddd @3441
    _ZN8moMotion6movCubEcidddd @3442
    _ZN8moMotion6movEsfEcidddd @3443
    _ZN8moMotion6movFijEcidddd @3444
    _ZN8moMotion6movGanEcidddd @3445
    _ZN8moMotion6movLinEcidddd @3446
    _ZN8moMotion6movPulEcidddd @3447
    _ZN8moMotion6movRanEcidddd @3448
    _ZN8moMotion6movSEsEcidddd @3449
    _ZN8moMotionC1Ev @3450
    _ZN8moMotionC2Ev @3451
    _ZN8moMotionD0Ev @3452
    _ZN8moMotionD1Ev @3453
    _ZN8moMotionD2Ev @3454
    _ZN8moOutlet10DisconnectEP7moInlet @3455
    _ZN8moOutlet14GetConnectionsEv @3456
    _ZN8moOutlet6FinishEv @3457
    _ZN8moOutlet7ConnectEP7moInlet @3458
    _ZN8moOutletC1Ev @3459
    _ZN8moOutletC2Ev @3460
    _ZN8moOutletD0Ev @3461
    _ZN8moOutletD1Ev @3462
    _ZN8moOutletD2Ev @3463
    _ZN8moParams3AddERK7moParam @3464
    _ZN8moParams3GetEi @3465
    _ZN8moParams3SetEiRK7moParam @3466
    _ZN8moParams4CopyERKS_ @3467
    _ZN8moParams4CopyERKS_ii @3468
    _ZN8moParams4InitEi7moParam @3469
    _ZN8moParams5CountEv @3470
    _ZN8moParams5EmptyEv @3471
    _ZN8moParams6FinishEv @3472
    _ZN8moParams6InsertEiRK7moParam @3473
    _ZN8moParams6RemoveEi @3474
    _ZN8moParamsC1ERKS_ @3475
    _ZN8moParamsC1Ei @3476
    _ZN8moParamsC1Ev @3477
    _ZN8moParamsC2ERKS_ @3478
    _ZN8moParamsC2Ei @3479
    _ZN8moParamsC2Ev @3480
    _ZN8moParamsD0Ev @3481
    _ZN8moParamsD1Ev @3482
    _ZN8moParamsD2Ev @3483
    _ZN8moParamsaSERKS_ @3484
    _ZN8moPlugin4LoadE7moText0 @3485
    _ZN8moPlugin6CreateEv @3486
    _ZN8moPlugin6UnloadEv @3487
    _ZN8moPlugin7DestroyEP8moEffect @3488
    _ZN8moPluginD0Ev @3489
    _ZN8moPluginD1Ev @3490
    _ZN8moScript10InitScriptEv @3491
    _ZN8moScript11CompileFileEPKc @3492
    _ZN8moScript12FinishScriptEv @3493
    _ZN8moScript13CompileBufferEPhj @3494
    _ZN8moScript16AddFunctionParamEPc @3495
    _ZN8moScript16AddFunctionParamEf @3496
    _ZN8moScript16AddFunctionParamEi @3497
    _ZN8moScript16RegisterFunctionEPKc @3498
    _ZN8moScript17ScriptHasFunctionEPKc @3499
    _ZN8moScript19RunSelectedFunctionEi @3500
    _ZN8moScript20SelectScriptFunctionEPKc @3501
    _ZN8moScript4m_vmE @3502 DATA
    _ZN8moScript5m_dbgE @3503 DATA
    _ZN8moScriptC1Ev @3504
    _ZN8moScriptC2Ev @3505
    _ZN8moScriptD0Ev @3506
    _ZN8moScriptD1Ev @3507
    _ZN8moScriptD2Ev @3508
    _ZN8moShader10StopShaderEv @3509
    _ZN8moShader11StartShaderEv @3510
    _ZN8moShader12ShaderActiveEv @3511
    _ZN8moShader13FragErrorCodeEv @3512
    _ZN8moShader13VertErrorCodeEv @3513
    _ZN8moShader16LoadShaderSourceE7moText0 @3514
    _ZN8moShader4InitEv @3515
    _ZN8moShader6FinishEv @3516
    _ZN8moShaderC1Ev @3517
    _ZN8moShaderC2Ev @3518
    _ZN8moShaderD0Ev @3519
    _ZN8moShaderD1Ev @3520
    _ZN8moShaderD2Ev @3521
    _ZN8moThread10KillThreadEv @3522
    _ZN8moThread12CreateThreadEv @3523
    _ZN8moThread12ThreadExistsEv @3524
    _ZN8moThread14ProcessMessageEv @3525
    _ZN8moThread17SendThreadMessageEi @3526
    _ZN8moThread21InitialThreadFunctionEPv @3527
    _ZN8moThreadC1Ev @3528
    _ZN8moThreadC2Ev @3529
    _ZN8moThreadD0Ev @3530
    _ZN8moThreadD1Ev @3531
    _ZN8moThreadD2Ev @3532
    _ZN8moTimers3AddERKP7moTimer @3533
    _ZN8moTimers3GetEi @3534
    _ZN8moTimers3SetEiRKP7moTimer @3535
    _ZN8moTimers4CopyERKS_ @3536
    _ZN8moTimers4CopyERKS_ii @3537
    _ZN8moTimers4InitEiP7moTimer @3538
    _ZN8moTimers5CountEv @3539
    _ZN8moTimers5EmptyEv @3540
    _ZN8moTimers6FinishEv @3541
    _ZN8moTimers6InsertEiRKP7moTimer @3542
    _ZN8moTimers6RemoveEi @3543
    _ZN8moTimersC1ERKS_ @3544
    _ZN8moTimersC1Ei @3545
    _ZN8moTimersC1Ev @3546
    _ZN8moTimersC2ERKS_ @3547
    _ZN8moTimersC2Ei @3548
    _ZN8moTimersC2Ev @3549
    _ZN8moTimersD0Ev @3550
    _ZN8moTimersD1Ev @3551
    _ZN8moTimersD2Ev @3552
    _ZN8moTimersaSERKS_ @3553
    _ZN8moValues3AddERK7moValue @3554
    _ZN8moValues3GetEi @3555
    _ZN8moValues3SetEiRK7moValue @3556
    _ZN8moValues4CopyERKS_ @3557
    _ZN8moValues4CopyERKS_ii @3558
    _ZN8moValues4InitEi7moValue @3559
    _ZN8moValues5CountEv @3560
    _ZN8moValues5EmptyEv @3561
    _ZN8moValues6FinishEv @3562
    _ZN8moValues6InsertEiRK7moValue @3563
    _ZN8moValues6RemoveEi @3564
    _ZN8moValuesC1ERKS_ @3565
    _ZN8moValuesC1Ei @3566
    _ZN8moValuesC1Ev @3567
    _ZN8moValuesC2ERKS_ @3568
    _ZN8moValuesC2Ei @3569
    _ZN8moValuesC2Ev @3570
    _ZN8moValuesD0Ev @3571
    _ZN8moValuesD1Ev @3572
    _ZN8moValuesD2Ev @3573
    _ZN8moValuesaSERKS_ @3574
    _ZN8moWidgetC1Ev @3575
    _ZN8moWidgetC2Ev @3576
    _ZN8moWidgetD0Ev @3577
    _ZN8moWidgetD1Ev @3578
    _ZN8moWidgetD2Ev @3579
    _ZN8moWindow11InteractionEv @3580
    _ZN8moWindow4DrawEv @3581
    _ZN8moWindow4InitEP17moResourceManagerffff @3582
    _ZN8moWindow6UpdateEv @3583
    _ZN8moWindow7SetInfoER11moTextArray @3584
    _ZN8moWindowC1Ev @3585
    _ZN8moWindowC2Ev @3586
    _ZN8moWindowD0Ev @3587
    _ZN8moWindowD1Ev @3588
    _ZN8moWindowD2Ev @3589
    _ZN9ArcBall_t4dragEPK9Tuple2f_tP9Tuple4f_t @3590
    _ZN9ArcBall_t5clickEPK9Tuple2f_t @3591
    _ZN9ArcBall_tC1Eff @3592
    _ZN9ArcBall_tC1Ev @3593
    _ZN9ArcBall_tC2Eff @3594
    _ZN9ArcBall_tC2Ev @3595
    _ZN9moConsole10GetPreconfEi @3596
    _ZN9moConsole10LGetPresetER19moLuaVirtualMachine @3597
    _ZN9moConsole10LSetPresetER19moLuaVirtualMachine @3598
    _ZN9moConsole10SetPreconfEii @3599
    _ZN9moConsole11GetObjectIdE7moText0 @3600
    _ZN9moConsole11InteractionEv @3601
    _ZN9moConsole11LGetPreconfER19moLuaVirtualMachine @3602
    _ZN9moConsole11LSetPreconfER19moLuaVirtualMachine @3603
    _ZN9moConsole11LoadEffectsEv @3604
    _ZN9moConsole12LGetObjectIdER19moLuaVirtualMachine @3605
    _ZN9moConsole13GLSwapBuffersEv @3606
    _ZN9moConsole13GetDefinitionEP18moConfigDefinition @3607
    _ZN9moConsole13HandleReturnsER19moLuaVirtualMachinePKc @3608
    _ZN9moConsole13InitResourcesEP17moResourceManager7moText0R8moConfigiiiiiP6HWND__Pv @3609
    _ZN9moConsole13LoadIODevicesEv @3610
    _ZN9moConsole13LoadResourcesEv @3611
    _ZN9moConsole13ScriptCallingER19moLuaVirtualMachinei @3612
    _ZN9moConsole13UnloadEffectsEv @3613
    _ZN9moConsole14LGetDeviceCodeER19moLuaVirtualMachine @3614
    _ZN9moConsole14LoadPreEffectsEv @3615
    _ZN9moConsole15LoadConnectionsEv @3616
    _ZN9moConsole15LoadPostEffectsEv @3617
    _ZN9moConsole15PushDebugStringER19moLuaVirtualMachine @3618
    _ZN9moConsole15UnloadIODevicesEv @3619
    _ZN9moConsole15UnloadResourcesEv @3620
    _ZN9moConsole16UnloadPreEffectsEv @3621
    _ZN9moConsole17LoadMasterEffectsEv @3622
    _ZN9moConsole17RegisterFunctionsEv @3623
    _ZN9moConsole17StopMasterEffectsEv @3624
    _ZN9moConsole17UnloadPostEffectsEv @3625
    _ZN9moConsole18FinalizeAllEffectsEv @3626
    _ZN9moConsole18SetIODeviceManagerEP17moIODeviceManager @3627
    _ZN9moConsole18StartMasterEffectsEv @3628
    _ZN9moConsole19ConvertKeyNameToIdxER7moText0 @3629
    _ZN9moConsole19UnloadMasterEffectsEv @3630
    _ZN9moConsole20InitializeAllEffectsEv @3631
    _ZN9moConsole4DrawEv @3632
    _ZN9moConsole4InitE7moText0S0_P17moIODeviceManagerP17moResourceManager19moRenderManagerModeiiiiP6HWND__Pv @3633
    _ZN9moConsole4InitEv @3634
    _ZN9moConsole6FinishEv @3635
    _ZN9moConsole6UpdateEv @3636
    _ZN9moConsole7LEnableER19moLuaVirtualMachine @3637
    _ZN9moConsole8GetTicksEv @3638
    _ZN9moConsole8LDisableER19moLuaVirtualMachine @3639
    _ZN9moConsole8SetTicksEi @3640
    _ZN9moConsole9GetPresetEv @3641
    _ZN9moConsole9LGetParamER19moLuaVirtualMachine @3642
    _ZN9moConsole9LGetStateER19moLuaVirtualMachine @3643
    _ZN9moConsole9LGetTicksER19moLuaVirtualMachine @3644
    _ZN9moConsole9LGetValueER19moLuaVirtualMachine @3645
    _ZN9moConsole9LSetParamER19moLuaVirtualMachine @3646
    _ZN9moConsole9LSetStateER19moLuaVirtualMachine @3647
    _ZN9moConsole9LSetTicksER19moLuaVirtualMachine @3648
    _ZN9moConsole9LSetValueER19moLuaVirtualMachine @3649
    _ZN9moConsole9SetPresetEi @3650
    _ZN9moConsoleC1Ev @3651
    _ZN9moConsoleC2Ev @3652
    _ZN9moConsoleD0Ev @3653
    _ZN9moConsoleD1Ev @3654
    _ZN9moConsoleD2Ev @3655
    _ZN9moDMatrixIdED0Ev @3656
    _ZN9moDMatrixIdED1Ev @3657
    _ZN9moDMatrixIfED0Ev @3658
    _ZN9moDMatrixIfED1Ev @3659
    _ZN9moDVectorIdED0Ev @3660
    _ZN9moDVectorIdED1Ev @3661
    _ZN9moDVectorIfED0Ev @3662
    _ZN9moDVectorIfED1Ev @3663
    _ZN9moGsGraph10CheckStateEib @3664
    _ZN9moGsGraph11FinishGraphEv @3665
    _ZN9moGsGraph11GetDurationEv @3666
    _ZN9moGsGraph11GetPositionEv @3667
    _ZN9moGsGraph12RetreivePadsEPv @3668
    _ZN9moGsGraph12cb_have_dataEPvS0_S0_ @3669
    _ZN9moGsGraph14BuildLiveGraphEP13moBucketsPool15moCaptureDevice @3670
    _ZN9moGsGraph14BuildLiveSoundE7moText0 @3671
    _ZN9moGsGraph14CopyVideoFrameEPvi @3672
    _ZN9moGsGraph14GetFrameBufferEPl @3673
    _ZN9moGsGraph14SetVideoFormatEPvS0_ @3674
    _ZN9moGsGraph15GetFramesLengthEv @3675
    _ZN9moGsGraph16BuildLiveDVGraphEP13moBucketsPoolR15moCaptureDevice @3676
    _ZN9moGsGraph16BuildRecordGraphE7moText0P13moBucketsPool @3677
    _ZN9moGsGraph16SetCaptureDeviceE7moText0i @3678
    _ZN9moGsGraph19BuildLiveVideoGraphE7moText0P13moBucketsPool @3679
    _ZN9moGsGraph20BuildLiveWebcamGraphEP13moBucketsPoolR15moCaptureDevice @3680
    _ZN9moGsGraph21BuildLiveQTVideoGraphE7moText0P13moBucketsPool @3681
    _ZN9moGsGraph23BuildLiveStreamingGraphEP13moBucketsPool7moText0 @3682
    _ZN9moGsGraph23WaitForFormatDefinitionEm @3683
    _ZN9moGsGraph4PlayEv @3684
    _ZN9moGsGraph4SeekEj @3685
    _ZN9moGsGraph4StopEv @3686
    _ZN9moGsGraph5PauseEv @3687
    _ZN9moGsGraph8GetStateEv @3688
    _ZN9moGsGraph8bus_callEPvS0_S0_ @3689
    _ZN9moGsGraph9InitGraphEv @3690
    _ZN9moGsGraph9IsRunningEv @3691
    _ZN9moGsGraph9cb_newpadEPvS0_bS0_ @3692
    _ZN9moGsGraphC1Ev @3693
    _ZN9moGsGraphC2Ev @3694
    _ZN9moGsGraphD0Ev @3695
    _ZN9moGsGraphD1Ev @3696
    _ZN9moGsGraphD2Ev @3697
    _ZN9moLuaMath10UnitRandomEP9lua_State @3698
    _ZN9moLuaMath14IntervalRandomEP9lua_State @3699
    _ZN9moLuaMath15SymmetricRandomEP9lua_State @3700
    _ZN9moLuaMath3CosEP9lua_State @3701
    _ZN9moLuaMath3ExpEP9lua_State @3702
    _ZN9moLuaMath3LogEP9lua_State @3703
    _ZN9moLuaMath3PowEP9lua_State @3704
    _ZN9moLuaMath3SinEP9lua_State @3705
    _ZN9moLuaMath3SqrEP9lua_State @3706
    _ZN9moLuaMath3TanEP9lua_State @3707
    _ZN9moLuaMath4ACosEP9lua_State @3708
    _ZN9moLuaMath4ASinEP9lua_State @3709
    _ZN9moLuaMath4ATanEP9lua_State @3710
    _ZN9moLuaMath4CeilEP9lua_State @3711
    _ZN9moLuaMath4FAbsEP9lua_State @3712
    _ZN9moLuaMath4FModEP9lua_State @3713
    _ZN9moLuaMath4Log2EP9lua_State @3714
    _ZN9moLuaMath4SqrtEP9lua_State @3715
    _ZN9moLuaMath5ATan2EP9lua_State @3716
    _ZN9moLuaMath5FloorEP9lua_State @3717
    _ZN9moLuaMath5Log10EP9lua_State @3718
    _ZN9moLuaMath7InvSqrtEP9lua_State @3719
    _ZN9moLuaMath7methodsE @3720 DATA
    _ZN9moLuaMath9classNameE @3721 DATA
    _ZN9moLuaMathC1EP9lua_State @3722
    _ZN9moLuaMathC2EP9lua_State @3723
    _ZN9moLuaThisD0Ev @3724
    _ZN9moLuaThisD1Ev @3725
    _ZN9moMatrix2IdE12MakeDiagonalEdd @3726
    _ZN9moMatrix2IdE12MakeIdentityEv @3727
    _ZN9moMatrix2IdE14OrthonormalizeEv @3728
    _ZN9moMatrix2IdE17MakeTensorProductERK9moVector2IdES4_ @3729
    _ZN9moMatrix2IdE4ZEROE @3730 DATA
    _ZN9moMatrix2IdE6SetRowEiRK9moVector2IdE @3731
    _ZN9moMatrix2IdE8IDENTITYE @3732 DATA
    _ZN9moMatrix2IdE8MakeZeroEv @3733
    _ZN9moMatrix2IdE9FromAngleEd @3734
    _ZN9moMatrix2IdE9SetColumnEiRK9moVector2IdE @3735
    _ZN9moMatrix2IdEC1EPK9moVector2IdEb @3736
    _ZN9moMatrix2IdEC1EPKdb @3737
    _ZN9moMatrix2IdEC1ERK9moVector2IdES4_ @3738
    _ZN9moMatrix2IdEC1ERK9moVector2IdES4_b @3739
    _ZN9moMatrix2IdEC1ERKS0_ @3740
    _ZN9moMatrix2IdEC1Eb @3741
    _ZN9moMatrix2IdEC1Ed @3742
    _ZN9moMatrix2IdEC1Edd @3743
    _ZN9moMatrix2IdEC1Edddd @3744
    _ZN9moMatrix2IdEC2EPK9moVector2IdEb @3745
    _ZN9moMatrix2IdEC2EPKdb @3746
    _ZN9moMatrix2IdEC2ERK9moVector2IdES4_ @3747
    _ZN9moMatrix2IdEC2ERK9moVector2IdES4_b @3748
    _ZN9moMatrix2IdEC2ERKS0_ @3749
    _ZN9moMatrix2IdEC2Eb @3750
    _ZN9moMatrix2IdEC2Ed @3751
    _ZN9moMatrix2IdEC2Edd @3752
    _ZN9moMatrix2IdEC2Edddd @3753
    _ZN9moMatrix2IdEaSERKS0_ @3754
    _ZN9moMatrix2IdEdVEd @3755
    _ZN9moMatrix2IdEmIERKS0_ @3756
    _ZN9moMatrix2IdEmLEd @3757
    _ZN9moMatrix2IdEpLERKS0_ @3758
    _ZN9moMatrix2IfE12MakeDiagonalEff @3759
    _ZN9moMatrix2IfE12MakeIdentityEv @3760
    _ZN9moMatrix2IfE14OrthonormalizeEv @3761
    _ZN9moMatrix2IfE17MakeTensorProductERK9moVector2IfES4_ @3762
    _ZN9moMatrix2IfE4ZEROE @3763 DATA
    _ZN9moMatrix2IfE6SetRowEiRK9moVector2IfE @3764
    _ZN9moMatrix2IfE8IDENTITYE @3765 DATA
    _ZN9moMatrix2IfE8MakeZeroEv @3766
    _ZN9moMatrix2IfE9FromAngleEf @3767
    _ZN9moMatrix2IfE9SetColumnEiRK9moVector2IfE @3768
    _ZN9moMatrix2IfEC1EPK9moVector2IfEb @3769
    _ZN9moMatrix2IfEC1EPKfb @3770
    _ZN9moMatrix2IfEC1ERK9moVector2IfES4_ @3771
    _ZN9moMatrix2IfEC1ERK9moVector2IfES4_b @3772
    _ZN9moMatrix2IfEC1ERKS0_ @3773
    _ZN9moMatrix2IfEC1Eb @3774
    _ZN9moMatrix2IfEC1Ef @3775
    _ZN9moMatrix2IfEC1Eff @3776
    _ZN9moMatrix2IfEC1Effff @3777
    _ZN9moMatrix2IfEC2EPK9moVector2IfEb @3778
    _ZN9moMatrix2IfEC2EPKfb @3779
    _ZN9moMatrix2IfEC2ERK9moVector2IfES4_ @3780
    _ZN9moMatrix2IfEC2ERK9moVector2IfES4_b @3781
    _ZN9moMatrix2IfEC2ERKS0_ @3782
    _ZN9moMatrix2IfEC2Eb @3783
    _ZN9moMatrix2IfEC2Ef @3784
    _ZN9moMatrix2IfEC2Eff @3785
    _ZN9moMatrix2IfEC2Effff @3786
    _ZN9moMatrix2IfEaSERKS0_ @3787
    _ZN9moMatrix2IfEdVEf @3788
    _ZN9moMatrix2IfEmIERKS0_ @3789
    _ZN9moMatrix2IfEmLEf @3790
    _ZN9moMatrix2IfEpLERKS0_ @3791
    _ZN9moMatrix3IdE11QLAlgorithmEPdS1_ @3792
    _ZN9moMatrix3IdE12MakeDiagonalEddd @3793
    _ZN9moMatrix3IdE12MakeIdentityEv @3794
    _ZN9moMatrix3IdE13BidiagonalizeERS0_S1_S1_ @3795
    _ZN9moMatrix3IdE13FromAxisAngleERK9moVector3IdEd @3796
    _ZN9moMatrix3IdE14GolubKahanStepERS0_S1_S1_ @3797
    _ZN9moMatrix3IdE14OrthonormalizeEv @3798
    _ZN9moMatrix3IdE14TridiagonalizeEPdS1_ @3799
    _ZN9moMatrix3IdE17MakeTensorProductERK9moVector3IdES4_ @3800
    _ZN9moMatrix3IdE18FromEulerAnglesXYZEddd @3801
    _ZN9moMatrix3IdE18FromEulerAnglesXZYEddd @3802
    _ZN9moMatrix3IdE18FromEulerAnglesYXZEddd @3803
    _ZN9moMatrix3IdE18FromEulerAnglesYZXEddd @3804
    _ZN9moMatrix3IdE18FromEulerAnglesZXYEddd @3805
    _ZN9moMatrix3IdE18FromEulerAnglesZYXEddd @3806
    _ZN9moMatrix3IdE18PolarDecompositionERS0_S1_ @3807
    _ZN9moMatrix3IdE24SingularValueCompositionERKS0_S2_S2_ @3808
    _ZN9moMatrix3IdE4ZEROE @3809 DATA
    _ZN9moMatrix3IdE5SlerpEdRKS0_S2_ @3810
    _ZN9moMatrix3IdE6SetRowEiRK9moVector3IdE @3811
    _ZN9moMatrix3IdE8IDENTITYE @3812 DATA
    _ZN9moMatrix3IdE8MakeZeroEv @3813
    _ZN9moMatrix3IdE9SetColumnEiRK9moVector3IdE @3814
    _ZN9moMatrix3IdEC1EPK9moVector3IdEb @3815
    _ZN9moMatrix3IdEC1EPKdb @3816
    _ZN9moMatrix3IdEC1ERK9moVector3IdES4_ @3817
    _ZN9moMatrix3IdEC1ERK9moVector3IdES4_S4_b @3818
    _ZN9moMatrix3IdEC1ERK9moVector3IdEd @3819
    _ZN9moMatrix3IdEC1ERKS0_ @3820
    _ZN9moMatrix3IdEC1Eb @3821
    _ZN9moMatrix3IdEC1Eddd @3822
    _ZN9moMatrix3IdEC1Eddddddddd @3823
    _ZN9moMatrix3IdEC2EPK9moVector3IdEb @3824
    _ZN9moMatrix3IdEC2EPKdb @3825
    _ZN9moMatrix3IdEC2ERK9moVector3IdES4_ @3826
    _ZN9moMatrix3IdEC2ERK9moVector3IdES4_S4_b @3827
    _ZN9moMatrix3IdEC2ERK9moVector3IdEd @3828
    _ZN9moMatrix3IdEC2ERKS0_ @3829
    _ZN9moMatrix3IdEC2Eb @3830
    _ZN9moMatrix3IdEC2Eddd @3831
    _ZN9moMatrix3IdEC2Eddddddddd @3832
    _ZN9moMatrix3IdEaSERKS0_ @3833
    _ZN9moMatrix3IdEclEii @3834
    _ZN9moMatrix3IdEcvPdEv @3835
    _ZN9moMatrix3IdEdVEd @3836
    _ZN9moMatrix3IdEixEi @3837
    _ZN9moMatrix3IdEmIERKS0_ @3838
    _ZN9moMatrix3IdEmLEd @3839
    _ZN9moMatrix3IdEpLERKS0_ @3840
    _ZN9moMatrix3IfE11QLAlgorithmEPfS1_ @3841
    _ZN9moMatrix3IfE12MakeDiagonalEfff @3842
    _ZN9moMatrix3IfE12MakeIdentityEv @3843
    _ZN9moMatrix3IfE13BidiagonalizeERS0_S1_S1_ @3844
    _ZN9moMatrix3IfE13FromAxisAngleERK9moVector3IfEf @3845
    _ZN9moMatrix3IfE14GolubKahanStepERS0_S1_S1_ @3846
    _ZN9moMatrix3IfE14OrthonormalizeEv @3847
    _ZN9moMatrix3IfE14TridiagonalizeEPfS1_ @3848
    _ZN9moMatrix3IfE17MakeTensorProductERK9moVector3IfES4_ @3849
    _ZN9moMatrix3IfE18FromEulerAnglesXYZEfff @3850
    _ZN9moMatrix3IfE18FromEulerAnglesXZYEfff @3851
    _ZN9moMatrix3IfE18FromEulerAnglesYXZEfff @3852
    _ZN9moMatrix3IfE18FromEulerAnglesYZXEfff @3853
    _ZN9moMatrix3IfE18FromEulerAnglesZXYEfff @3854
    _ZN9moMatrix3IfE18FromEulerAnglesZYXEfff @3855
    _ZN9moMatrix3IfE18PolarDecompositionERS0_S1_ @3856
    _ZN9moMatrix3IfE24SingularValueCompositionERKS0_S2_S2_ @3857
    _ZN9moMatrix3IfE4ZEROE @3858 DATA
    _ZN9moMatrix3IfE5SlerpEfRKS0_S2_ @3859
    _ZN9moMatrix3IfE6SetRowEiRK9moVector3IfE @3860
    _ZN9moMatrix3IfE8IDENTITYE @3861 DATA
    _ZN9moMatrix3IfE8MakeZeroEv @3862
    _ZN9moMatrix3IfE9SetColumnEiRK9moVector3IfE @3863
    _ZN9moMatrix3IfEC1EPK9moVector3IfEb @3864
    _ZN9moMatrix3IfEC1EPKfb @3865
    _ZN9moMatrix3IfEC1ERK9moVector3IfES4_ @3866
    _ZN9moMatrix3IfEC1ERK9moVector3IfES4_S4_b @3867
    _ZN9moMatrix3IfEC1ERK9moVector3IfEf @3868
    _ZN9moMatrix3IfEC1ERKS0_ @3869
    _ZN9moMatrix3IfEC1Eb @3870
    _ZN9moMatrix3IfEC1Efff @3871
    _ZN9moMatrix3IfEC1Efffffffff @3872
    _ZN9moMatrix3IfEC2EPK9moVector3IfEb @3873
    _ZN9moMatrix3IfEC2EPKfb @3874
    _ZN9moMatrix3IfEC2ERK9moVector3IfES4_ @3875
    _ZN9moMatrix3IfEC2ERK9moVector3IfES4_S4_b @3876
    _ZN9moMatrix3IfEC2ERK9moVector3IfEf @3877
    _ZN9moMatrix3IfEC2ERKS0_ @3878
    _ZN9moMatrix3IfEC2Eb @3879
    _ZN9moMatrix3IfEC2Efff @3880
    _ZN9moMatrix3IfEC2Efffffffff @3881
    _ZN9moMatrix3IfEaSERKS0_ @3882
    _ZN9moMatrix3IfEclEii @3883
    _ZN9moMatrix3IfEcvPfEv @3884
    _ZN9moMatrix3IfEdVEf @3885
    _ZN9moMatrix3IfEixEi @3886
    _ZN9moMatrix3IfEmIERKS0_ @3887
    _ZN9moMatrix3IfEmLEf @3888
    _ZN9moMatrix3IfEpLERKS0_ @3889
    _ZN9moMessageC1Eii18moMoldeoObjectType7moText0iS0_S1_RK6moData @3890
    _ZN9moMessageC1Eii18moMoldeoObjectTypeiS0_RK6moData @3891
    _ZN9moMessageC1EiiRK6moData @3892
    _ZN9moMessageC1EiiiRK6moData @3893
    _ZN9moMessageC1Ev @3894
    _ZN9moMessageC2Eii18moMoldeoObjectType7moText0iS0_S1_RK6moData @3895
    _ZN9moMessageC2Eii18moMoldeoObjectTypeiS0_RK6moData @3896
    _ZN9moMessageC2EiiRK6moData @3897
    _ZN9moMessageC2EiiiRK6moData @3898
    _ZN9moMessageC2Ev @3899
    _ZN9moMessageD0Ev @3900
    _ZN9moMessageD1Ev @3901
    _ZN9moMessageD2Ev @3902
    _ZN9moOutlets3AddERKP8moOutlet @3903
    _ZN9moOutlets3GetEi @3904
    _ZN9moOutlets3SetEiRKP8moOutlet @3905
    _ZN9moOutlets4CopyERKS_ @3906
    _ZN9moOutlets4CopyERKS_ii @3907
    _ZN9moOutlets4InitEiP8moOutlet @3908
    _ZN9moOutlets5CountEv @3909
    _ZN9moOutlets5EmptyEv @3910
    _ZN9moOutlets6FinishEv @3911
    _ZN9moOutlets6InsertEiRKP8moOutlet @3912
    _ZN9moOutlets6RemoveEi @3913
    _ZN9moOutletsC1ERKS_ @3914
    _ZN9moOutletsC1Ei @3915
    _ZN9moOutletsC1Ev @3916
    _ZN9moOutletsC2ERKS_ @3917
    _ZN9moOutletsC2Ei @3918
    _ZN9moOutletsC2Ev @3919
    _ZN9moOutletsD0Ev @3920
    _ZN9moOutletsD1Ev @3921
    _ZN9moOutletsD2Ev @3922
    _ZN9moOutletsaSERKS_ @3923
    _ZN9moPresets4InitEii @3924
    _ZN9moPresets4LoadEiP8moConfigP13moEffectState @3925
    _ZN9moPresets4SaveEiP8moConfigP13moEffectState @3926
    _ZN9moPresets6FinishEv @3927
    _ZN9moPresetsC1Eii @3928
    _ZN9moPresetsC1Ev @3929
    _ZN9moPresetsC2Eii @3930
    _ZN9moPresetsC2Ev @3931
    _ZN9moPresetsD0Ev @3932
    _ZN9moPresetsD1Ev @3933
    _ZN9moPresetsD2Ev @3934
    _ZN9moTexture10BuildEmptyEjj @3935
    _ZN9moTexture11CopyFromTexEPS_jjjj @3936
    _ZN9moTexture12GetDataWidthEv @3937
    _ZN9moTexture12NextPowerOf2Ej @3938
    _ZN9moTexture13BuildFromFileE7moText0 @3939
    _ZN9moTexture13CalculateSizeEjj @3940
    _ZN9moTexture13GetDataHeightEv @3941
    _ZN9moTexture13SupportedFileE7moText0 @3942
    _ZN9moTexture14FlipBufferVertEPhi @3943
    _ZN9moTexture15BuildFromBufferEjjPvjj @3944
    _ZN9moTexture15CreateThumbnailE7moText0iiS0_ @3945
    _ZN9moTexture20SetFBOandAttachPointEP5moFBO @3946
    _ZN9moTexture30CalculateLuminanceAndConstrastEiiii @3947
    _ZN9moTexture4InitE7moText0jP17moResourceManager10moTexParam @3948
    _ZN9moTexture4LoadEP7moParam @3949
    _ZN9moTexture4LoadEP7moValue @3950
    _ZN9moTexture5BuildEv @3951
    _ZN9moTexture6FinishEv @3952
    _ZN9moTexture8SetParamEv @3953
    _ZN9moTexture9GetBufferEPvjj @3954
    _ZN9moTexture9SetBufferEPvjj @3955
    _ZN9moTexture9SetBufferEjjPvjj @3956
    _ZN9moTextureC1Ev @3957
    _ZN9moTextureC2Ev @3958
    _ZN9moTextureD0Ev @3959
    _ZN9moTextureD1Ev @3960
    _ZN9moTextureD2Ev @3961
    _ZN9moTextureaSERKS_ @3962
    _ZN9moVector2IdE14OrthonormalizeERS0_S1_ @3963
    _ZN9moVector2IdE15ComputeExtremesEiPKS0_RS0_S3_ @3964
    _ZN9moVector2IdE1XEv @3965
    _ZN9moVector2IdE1YEv @3966
    _ZN9moVector2IdE24GenerateOrthonormalBasisERS0_S1_ @3967
    _ZN9moVector2IdE3ONEE @3968 DATA
    _ZN9moVector2IdE4ZEROE @3969 DATA
    _ZN9moVector2IdE5AngleERKS0_ @3970
    _ZN9moVector2IdE6CosineERKS0_ @3971
    _ZN9moVector2IdE6UNIT_XE @3972 DATA
    _ZN9moVector2IdE6UNIT_YE @3973 DATA
    _ZN9moVector2IdE9NormalizeEv @3974
    _ZN9moVector2IdEC1EPKd @3975
    _ZN9moVector2IdEC1ERKS0_ @3976
    _ZN9moVector2IdEC1Edd @3977
    _ZN9moVector2IdEC1Ev @3978
    _ZN9moVector2IdEC2EPKd @3979
    _ZN9moVector2IdEC2ERKS0_ @3980
    _ZN9moVector2IdEC2Edd @3981
    _ZN9moVector2IdEC2Ev @3982
    _ZN9moVector2IdEaSERKS0_ @3983
    _ZN9moVector2IdEcvPdEv @3984
    _ZN9moVector2IdEdVEd @3985
    _ZN9moVector2IdEixEi @3986
    _ZN9moVector2IdEmIERKS0_ @3987
    _ZN9moVector2IdEmLEd @3988
    _ZN9moVector2IdEpLERKS0_ @3989
    _ZN9moVector2IfE14OrthonormalizeERS0_S1_ @3990
    _ZN9moVector2IfE15ComputeExtremesEiPKS0_RS0_S3_ @3991
    _ZN9moVector2IfE1XEv @3992
    _ZN9moVector2IfE1YEv @3993
    _ZN9moVector2IfE24GenerateOrthonormalBasisERS0_S1_ @3994
    _ZN9moVector2IfE3ONEE @3995 DATA
    _ZN9moVector2IfE4ZEROE @3996 DATA
    _ZN9moVector2IfE5AngleERKS0_ @3997
    _ZN9moVector2IfE6CosineERKS0_ @3998
    _ZN9moVector2IfE6UNIT_XE @3999 DATA
    _ZN9moVector2IfE6UNIT_YE @4000 DATA
    _ZN9moVector2IfE9NormalizeEv @4001
    _ZN9moVector2IfEC1EPKf @4002
    _ZN9moVector2IfEC1ERKS0_ @4003
    _ZN9moVector2IfEC1Eff @4004
    _ZN9moVector2IfEC1Ev @4005
    _ZN9moVector2IfEC2EPKf @4006
    _ZN9moVector2IfEC2ERKS0_ @4007
    _ZN9moVector2IfEC2Eff @4008
    _ZN9moVector2IfEC2Ev @4009
    _ZN9moVector2IfEaSERKS0_ @4010
    _ZN9moVector2IfEcvPfEv @4011
    _ZN9moVector2IfEdVEf @4012
    _ZN9moVector2IfEixEi @4013
    _ZN9moVector2IfEmIERKS0_ @4014
    _ZN9moVector2IfEmLEf @4015
    _ZN9moVector2IfEpLERKS0_ @4016
    _ZN9moVector3IdE14OrthonormalizeEPS0_ @4017
    _ZN9moVector3IdE14OrthonormalizeERS0_S1_S1_ @4018
    _ZN9moVector3IdE15ComputeExtremesEiPKS0_RS0_S3_ @4019
    _ZN9moVector3IdE1XEv @4020
    _ZN9moVector3IdE1YEv @4021
    _ZN9moVector3IdE1ZEv @4022
    _ZN9moVector3IdE23GenerateComplementBasisERS0_S1_RKS0_ @4023
    _ZN9moVector3IdE24GenerateOrthonormalBasisERS0_S1_S1_ @4024
    _ZN9moVector3IdE3ONEE @4025 DATA
    _ZN9moVector3IdE4ZEROE @4026 DATA
    _ZN9moVector3IdE5AngleERKS0_ @4027
    _ZN9moVector3IdE6CosineERKS0_ @4028
    _ZN9moVector3IdE6UNIT_XE @4029 DATA
    _ZN9moVector3IdE6UNIT_YE @4030 DATA
    _ZN9moVector3IdE6UNIT_ZE @4031 DATA
    _ZN9moVector3IdE9NormalizeEv @4032
    _ZN9moVector3IdEC1EPKd @4033
    _ZN9moVector3IdEC1ERKS0_ @4034
    _ZN9moVector3IdEC1Eddd @4035
    _ZN9moVector3IdEC1Ev @4036
    _ZN9moVector3IdEC2EPKd @4037
    _ZN9moVector3IdEC2ERKS0_ @4038
    _ZN9moVector3IdEC2Eddd @4039
    _ZN9moVector3IdEC2Ev @4040
    _ZN9moVector3IdEaSERKS0_ @4041
    _ZN9moVector3IdEcvPdEv @4042
    _ZN9moVector3IdEdVEd @4043
    _ZN9moVector3IdEixEi @4044
    _ZN9moVector3IdEmIERKS0_ @4045
    _ZN9moVector3IdEmLEd @4046
    _ZN9moVector3IdEpLERKS0_ @4047
    _ZN9moVector3IfE14OrthonormalizeEPS0_ @4048
    _ZN9moVector3IfE14OrthonormalizeERS0_S1_S1_ @4049
    _ZN9moVector3IfE15ComputeExtremesEiPKS0_RS0_S3_ @4050
    _ZN9moVector3IfE1XEv @4051
    _ZN9moVector3IfE1YEv @4052
    _ZN9moVector3IfE1ZEv @4053
    _ZN9moVector3IfE23GenerateComplementBasisERS0_S1_RKS0_ @4054
    _ZN9moVector3IfE24GenerateOrthonormalBasisERS0_S1_S1_ @4055
    _ZN9moVector3IfE3ONEE @4056 DATA
    _ZN9moVector3IfE4ZEROE @4057 DATA
    _ZN9moVector3IfE5AngleERKS0_ @4058
    _ZN9moVector3IfE6CosineERKS0_ @4059
    _ZN9moVector3IfE6UNIT_XE @4060 DATA
    _ZN9moVector3IfE6UNIT_YE @4061 DATA
    _ZN9moVector3IfE6UNIT_ZE @4062 DATA
    _ZN9moVector3IfE9NormalizeEv @4063
    _ZN9moVector3IfEC1EPKf @4064
    _ZN9moVector3IfEC1ERKS0_ @4065
    _ZN9moVector3IfEC1Efff @4066
    _ZN9moVector3IfEC1Ev @4067
    _ZN9moVector3IfEC2EPKf @4068
    _ZN9moVector3IfEC2ERKS0_ @4069
    _ZN9moVector3IfEC2Efff @4070
    _ZN9moVector3IfEC2Ev @4071
    _ZN9moVector3IfEaSERKS0_ @4072
    _ZN9moVector3IfEcvPfEv @4073
    _ZN9moVector3IfEdVEf @4074
    _ZN9moVector3IfEixEi @4075
    _ZN9moVector3IfEmIERKS0_ @4076
    _ZN9moVector3IfEmLEf @4077
    _ZN9moVector3IfEpLERKS0_ @4078
    _ZN9moVector4IdE1WEv @4079
    _ZN9moVector4IdE1XEv @4080
    _ZN9moVector4IdE1YEv @4081
    _ZN9moVector4IdE1ZEv @4082
    _ZN9moVector4IdE3ONEE @4083 DATA
    _ZN9moVector4IdE4ZEROE @4084 DATA
    _ZN9moVector4IdE5AngleERKS0_ @4085
    _ZN9moVector4IdE6CosineERKS0_ @4086
    _ZN9moVector4IdE6UNIT_WE @4087 DATA
    _ZN9moVector4IdE6UNIT_XE @4088 DATA
    _ZN9moVector4IdE6UNIT_YE @4089 DATA
    _ZN9moVector4IdE6UNIT_ZE @4090 DATA
    _ZN9moVector4IdE9NormalizeEv @4091
    _ZN9moVector4IdEC1EPKd @4092
    _ZN9moVector4IdEC1ERKS0_ @4093
    _ZN9moVector4IdEC1Edddd @4094
    _ZN9moVector4IdEC1Ev @4095
    _ZN9moVector4IdEC2EPKd @4096
    _ZN9moVector4IdEC2ERKS0_ @4097
    _ZN9moVector4IdEC2Edddd @4098
    _ZN9moVector4IdEC2Ev @4099
    _ZN9moVector4IdEaSERKS0_ @4100
    _ZN9moVector4IdEcvPdEv @4101
    _ZN9moVector4IdEdVEd @4102
    _ZN9moVector4IdEixEi @4103
    _ZN9moVector4IdEmIERKS0_ @4104
    _ZN9moVector4IdEmLEd @4105
    _ZN9moVector4IdEpLERKS0_ @4106
    _ZN9moVector4IfE1WEv @4107
    _ZN9moVector4IfE1XEv @4108
    _ZN9moVector4IfE1YEv @4109
    _ZN9moVector4IfE1ZEv @4110
    _ZN9moVector4IfE3ONEE @4111 DATA
    _ZN9moVector4IfE4ZEROE @4112 DATA
    _ZN9moVector4IfE5AngleERKS0_ @4113
    _ZN9moVector4IfE6CosineERKS0_ @4114
    _ZN9moVector4IfE6UNIT_WE @4115 DATA
    _ZN9moVector4IfE6UNIT_XE @4116 DATA
    _ZN9moVector4IfE6UNIT_YE @4117 DATA
    _ZN9moVector4IfE6UNIT_ZE @4118 DATA
    _ZN9moVector4IfE9NormalizeEv @4119
    _ZN9moVector4IfEC1EPKf @4120
    _ZN9moVector4IfEC1ERKS0_ @4121
    _ZN9moVector4IfEC1Effff @4122
    _ZN9moVector4IfEC1Ev @4123
    _ZN9moVector4IfEC2EPKf @4124
    _ZN9moVector4IfEC2ERKS0_ @4125
    _ZN9moVector4IfEC2Effff @4126
    _ZN9moVector4IfEC2Ev @4127
    _ZN9moVector4IfEaSERKS0_ @4128
    _ZN9moVector4IfEcvPfEv @4129
    _ZN9moVector4IfEdVEf @4130
    _ZN9moVector4IfEixEi @4131
    _ZN9moVector4IfEmIERKS0_ @4132
    _ZN9moVector4IfEmLEf @4133
    _ZN9moVector4IfEpLERKS0_ @4134
    _ZN9moVideoIn4InitEv @4135
    _ZN9moVideoIn6FinishEv @4136
    _ZN9moVideoInC1Ev @4137
    _ZN9moVideoInC2Ev @4138
    _ZN9moVideoInD0Ev @4139
    _ZN9moVideoInD1Ev @4140
    _ZN9moVideoInD2Ev @4141
    _ZNK12moQuaternionIdE13SquaredLengthEv @4142
    _ZNK12moQuaternionIdE1WEv @4143
    _ZNK12moQuaternionIdE1XEv @4144
    _ZNK12moQuaternionIdE1YEv @4145
    _ZNK12moQuaternionIdE1ZEv @4146
    _ZNK12moQuaternionIdE3DotERKS0_ @4147
    _ZNK12moQuaternionIdE6LengthEv @4148
    _ZNK12moQuaternionIdEcvPKdEv @4149
    _ZNK12moQuaternionIdEdvEd @4150
    _ZNK12moQuaternionIdEixEi @4151
    _ZNK12moQuaternionIdEmiERKS0_ @4152
    _ZNK12moQuaternionIdEmlERKS0_ @4153
    _ZNK12moQuaternionIdEmlEd @4154
    _ZNK12moQuaternionIdEngEv @4155
    _ZNK12moQuaternionIdEplERKS0_ @4156
    _ZNK12moQuaternionIfE13SquaredLengthEv @4157
    _ZNK12moQuaternionIfE1WEv @4158
    _ZNK12moQuaternionIfE1XEv @4159
    _ZNK12moQuaternionIfE1YEv @4160
    _ZNK12moQuaternionIfE1ZEv @4161
    _ZNK12moQuaternionIfE3DotERKS0_ @4162
    _ZNK12moQuaternionIfE6LengthEv @4163
    _ZNK12moQuaternionIfEcvPKfEv @4164
    _ZNK12moQuaternionIfEdvEf @4165
    _ZNK12moQuaternionIfEixEi @4166
    _ZNK12moQuaternionIfEmiERKS0_ @4167
    _ZNK12moQuaternionIfEmlERKS0_ @4168
    _ZNK12moQuaternionIfEmlEf @4169
    _ZNK12moQuaternionIfEngEv @4170
    _ZNK12moQuaternionIfEplERKS0_ @4171
    _ZNK14moSingleCurve2IdE7GetTimeEdid @4172
    _ZNK14moSingleCurve2IdE9GetLengthEdd @4173
    _ZNK14moSingleCurve2IfE7GetTimeEfif @4174
    _ZNK14moSingleCurve2IfE9GetLengthEff @4175
    _ZNK14moSingleCurve3IdE7GetTimeEdid @4176
    _ZNK14moSingleCurve3IdE9GetLengthEdd @4177
    _ZNK14moSingleCurve3IfE7GetTimeEfif @4178
    _ZNK14moSingleCurve3IfE9GetLengthEff @4179
    _ZNK16moMultipleCurve2IdE10GetKeyInfoEdRiRd @4180
    _ZNK16moMultipleCurve2IdE11GetSegmentsEv @4181
    _ZNK16moMultipleCurve2IdE12GetVariationEddPK9moVector2IdES4_ @4182
    _ZNK16moMultipleCurve2IdE16InitializeLengthEv @4183
    _ZNK16moMultipleCurve2IdE7GetTimeEdid @4184
    _ZNK16moMultipleCurve2IdE8GetTimesEv @4185
    _ZNK16moMultipleCurve2IdE9GetLengthEdd @4186
    _ZNK16moMultipleCurve2IfE10GetKeyInfoEfRiRf @4187
    _ZNK16moMultipleCurve2IfE11GetSegmentsEv @4188
    _ZNK16moMultipleCurve2IfE12GetVariationEffPK9moVector2IfES4_ @4189
    _ZNK16moMultipleCurve2IfE16InitializeLengthEv @4190
    _ZNK16moMultipleCurve2IfE7GetTimeEfif @4191
    _ZNK16moMultipleCurve2IfE8GetTimesEv @4192
    _ZNK16moMultipleCurve2IfE9GetLengthEff @4193
    _ZNK16moMultipleCurve3IdE10GetKeyInfoEdRiRd @4194
    _ZNK16moMultipleCurve3IdE11GetSegmentsEv @4195
    _ZNK16moMultipleCurve3IdE12GetVariationEddPK9moVector3IdES4_ @4196
    _ZNK16moMultipleCurve3IdE16InitializeLengthEv @4197
    _ZNK16moMultipleCurve3IdE7GetTimeEdid @4198
    _ZNK16moMultipleCurve3IdE8GetTimesEv @4199
    _ZNK16moMultipleCurve3IdE9GetLengthEdd @4200
    _ZNK16moMultipleCurve3IfE10GetKeyInfoEfRiRf @4201
    _ZNK16moMultipleCurve3IfE11GetSegmentsEv @4202
    _ZNK16moMultipleCurve3IfE12GetVariationEffPK9moVector3IfES4_ @4203
    _ZNK16moMultipleCurve3IfE16InitializeLengthEv @4204
    _ZNK16moMultipleCurve3IfE7GetTimeEfif @4205
    _ZNK16moMultipleCurve3IfE8GetTimesEv @4206
    _ZNK16moMultipleCurve3IfE9GetLengthEff @4207
    _ZNK7moText06LengthEv @4208
    _ZNK7moText07ExplodeEPc @4209
    _ZNK8moCurve2IdE10GetMaxTimeEv @4210
    _ZNK8moCurve2IdE10GetMinTimeEv @4211
    _ZNK8moCurve2IdE10GetTangentEd @4212
    _ZNK8moCurve2IdE12GetCurvatureEd @4213
    _ZNK8moCurve2IdE14GetTotalLengthEv @4214
    _ZNK8moCurve2IdE15SubdivideByTimeEiRP9moVector2IdE @4215
    _ZNK8moCurve2IdE17SubdivideByLengthEiRP9moVector2IdE @4216
    _ZNK8moCurve2IdE20SubdivideByVariationEdRK9moVector2IdEdS4_diRiRPNS0_9PointListE @4217
    _ZNK8moCurve2IdE20SubdivideByVariationEdiRiRP9moVector2IdE @4218
    _ZNK8moCurve2IdE8GetFrameEdR9moVector2IdES3_S3_ @4219
    _ZNK8moCurve2IdE8GetSpeedEd @4220
    _ZNK8moCurve2IdE9GetNormalEd @4221
    _ZNK8moCurve2IfE10GetMaxTimeEv @4222
    _ZNK8moCurve2IfE10GetMinTimeEv @4223
    _ZNK8moCurve2IfE10GetTangentEf @4224
    _ZNK8moCurve2IfE12GetCurvatureEf @4225
    _ZNK8moCurve2IfE14GetTotalLengthEv @4226
    _ZNK8moCurve2IfE15SubdivideByTimeEiRP9moVector2IfE @4227
    _ZNK8moCurve2IfE17SubdivideByLengthEiRP9moVector2IfE @4228
    _ZNK8moCurve2IfE20SubdivideByVariationEfRK9moVector2IfEfS4_fiRiRPNS0_9PointListE @4229
    _ZNK8moCurve2IfE20SubdivideByVariationEfiRiRP9moVector2IfE @4230
    _ZNK8moCurve2IfE8GetFrameEfR9moVector2IfES3_S3_ @4231
    _ZNK8moCurve2IfE8GetSpeedEf @4232
    _ZNK8moCurve2IfE9GetNormalEf @4233
    _ZNK8moCurve3IdE10GetMaxTimeEv @4234
    _ZNK8moCurve3IdE10GetMinTimeEv @4235
    _ZNK8moCurve3IdE10GetTangentEd @4236
    _ZNK8moCurve3IdE10GetTorsionEd @4237
    _ZNK8moCurve3IdE11GetBinormalEd @4238
    _ZNK8moCurve3IdE12GetCurvatureEd @4239
    _ZNK8moCurve3IdE14GetTotalLengthEv @4240
    _ZNK8moCurve3IdE15SubdivideByTimeEiRP9moVector3IdE @4241
    _ZNK8moCurve3IdE17SubdivideByLengthEiRP9moVector3IdE @4242
    _ZNK8moCurve3IdE20SubdivideByVariationEdRK9moVector3IdEdS4_diRiRPNS0_9PointListE @4243
    _ZNK8moCurve3IdE8GetFrameEdR9moVector3IdES3_S3_S3_ @4244
    _ZNK8moCurve3IdE8GetSpeedEd @4245
    _ZNK8moCurve3IdE9GetNormalEd @4246
    _ZNK8moCurve3IfE10GetMaxTimeEv @4247
    _ZNK8moCurve3IfE10GetMinTimeEv @4248
    _ZNK8moCurve3IfE10GetTangentEf @4249
    _ZNK8moCurve3IfE10GetTorsionEf @4250
    _ZNK8moCurve3IfE11GetBinormalEf @4251
    _ZNK8moCurve3IfE12GetCurvatureEf @4252
    _ZNK8moCurve3IfE14GetTotalLengthEv @4253
    _ZNK8moCurve3IfE15SubdivideByTimeEiRP9moVector3IfE @4254
    _ZNK8moCurve3IfE17SubdivideByLengthEiRP9moVector3IfE @4255
    _ZNK8moCurve3IfE20SubdivideByVariationEfRK9moVector3IfEfS4_fiRiRPNS0_9PointListE @4256
    _ZNK8moCurve3IfE8GetFrameEfR9moVector3IfES3_S3_S3_ @4257
    _ZNK8moCurve3IfE8GetSpeedEf @4258
    _ZNK8moCurve3IfE9GetNormalEf @4259
    _ZNK9moMatrix2IdE11DeterminantEv @4260
    _ZNK9moMatrix2IdE13CompareArraysERKS0_ @4261
    _ZNK9moMatrix2IdE14GetColumnMajorEPd @4262
    _ZNK9moMatrix2IdE14TimesTransposeERKS0_ @4263
    _ZNK9moMatrix2IdE14TransposeTimesERKS0_ @4264
    _ZNK9moMatrix2IdE18EigenDecompositionERS0_S1_ @4265
    _ZNK9moMatrix2IdE5QFormERK9moVector2IdES4_ @4266
    _ZNK9moMatrix2IdE6GetRowEi @4267
    _ZNK9moMatrix2IdE7AdjointEv @4268
    _ZNK9moMatrix2IdE7InverseEv @4269
    _ZNK9moMatrix2IdE7ToAngleERd @4270
    _ZNK9moMatrix2IdE9GetColumnEi @4271
    _ZNK9moMatrix2IdE9TransposeEv @4272
    _ZNK9moMatrix2IdEdvEd @4273
    _ZNK9moMatrix2IdEeqERKS0_ @4274
    _ZNK9moMatrix2IdEgeERKS0_ @4275
    _ZNK9moMatrix2IdEgtERKS0_ @4276
    _ZNK9moMatrix2IdEleERKS0_ @4277
    _ZNK9moMatrix2IdEltERKS0_ @4278
    _ZNK9moMatrix2IdEmiERKS0_ @4279
    _ZNK9moMatrix2IdEmlERK9moVector2IdE @4280
    _ZNK9moMatrix2IdEmlERKS0_ @4281
    _ZNK9moMatrix2IdEmlEd @4282
    _ZNK9moMatrix2IdEneERKS0_ @4283
    _ZNK9moMatrix2IdEngEv @4284
    _ZNK9moMatrix2IdEplERKS0_ @4285
    _ZNK9moMatrix2IfE11DeterminantEv @4286
    _ZNK9moMatrix2IfE13CompareArraysERKS0_ @4287
    _ZNK9moMatrix2IfE14GetColumnMajorEPf @4288
    _ZNK9moMatrix2IfE14TimesTransposeERKS0_ @4289
    _ZNK9moMatrix2IfE14TransposeTimesERKS0_ @4290
    _ZNK9moMatrix2IfE18EigenDecompositionERS0_S1_ @4291
    _ZNK9moMatrix2IfE5QFormERK9moVector2IfES4_ @4292
    _ZNK9moMatrix2IfE6GetRowEi @4293
    _ZNK9moMatrix2IfE7AdjointEv @4294
    _ZNK9moMatrix2IfE7InverseEv @4295
    _ZNK9moMatrix2IfE7ToAngleERf @4296
    _ZNK9moMatrix2IfE9GetColumnEi @4297
    _ZNK9moMatrix2IfE9TransposeEv @4298
    _ZNK9moMatrix2IfEdvEf @4299
    _ZNK9moMatrix2IfEeqERKS0_ @4300
    _ZNK9moMatrix2IfEgeERKS0_ @4301
    _ZNK9moMatrix2IfEgtERKS0_ @4302
    _ZNK9moMatrix2IfEleERKS0_ @4303
    _ZNK9moMatrix2IfEltERKS0_ @4304
    _ZNK9moMatrix2IfEmiERKS0_ @4305
    _ZNK9moMatrix2IfEmlERK9moVector2IfE @4306
    _ZNK9moMatrix2IfEmlERKS0_ @4307
    _ZNK9moMatrix2IfEmlEf @4308
    _ZNK9moMatrix2IfEneERKS0_ @4309
    _ZNK9moMatrix2IfEngEv @4310
    _ZNK9moMatrix2IfEplERKS0_ @4311
    _ZNK9moMatrix3IdE11DeterminantEv @4312
    _ZNK9moMatrix3IdE11ToAxisAngleER9moVector3IdERd @4313
    _ZNK9moMatrix3IdE13CompareArraysERKS0_ @4314
    _ZNK9moMatrix3IdE13DiagonalTimesERK9moVector3IdE @4315
    _ZNK9moMatrix3IdE13TimesDiagonalERK9moVector3IdE @4316
    _ZNK9moMatrix3IdE14GetColumnMajorEPd @4317
    _ZNK9moMatrix3IdE14TimesTransposeERKS0_ @4318
    _ZNK9moMatrix3IdE14TransposeTimesERKS0_ @4319
    _ZNK9moMatrix3IdE16QDUDecompositionERS0_S1_S1_ @4320
    _ZNK9moMatrix3IdE16ToEulerAnglesXYZERdS1_S1_ @4321
    _ZNK9moMatrix3IdE16ToEulerAnglesXZYERdS1_S1_ @4322
    _ZNK9moMatrix3IdE16ToEulerAnglesYXZERdS1_S1_ @4323
    _ZNK9moMatrix3IdE16ToEulerAnglesYZXERdS1_S1_ @4324
    _ZNK9moMatrix3IdE16ToEulerAnglesZXYERdS1_S1_ @4325
    _ZNK9moMatrix3IdE16ToEulerAnglesZYXERdS1_S1_ @4326
    _ZNK9moMatrix3IdE18EigenDecompositionERS0_S1_ @4327
    _ZNK9moMatrix3IdE26SingularValueDecompositionERS0_S1_S1_ @4328
    _ZNK9moMatrix3IdE5QFormERK9moVector3IdES4_ @4329
    _ZNK9moMatrix3IdE6GetRowEi @4330
    _ZNK9moMatrix3IdE7AdjointEv @4331
    _ZNK9moMatrix3IdE7InverseEv @4332
    _ZNK9moMatrix3IdE9GetColumnEi @4333
    _ZNK9moMatrix3IdE9TransposeEv @4334
    _ZNK9moMatrix3IdEclEii @4335
    _ZNK9moMatrix3IdEcvPKdEv @4336
    _ZNK9moMatrix3IdEdvEd @4337
    _ZNK9moMatrix3IdEeqERKS0_ @4338
    _ZNK9moMatrix3IdEgeERKS0_ @4339
    _ZNK9moMatrix3IdEgtERKS0_ @4340
    _ZNK9moMatrix3IdEixEi @4341
    _ZNK9moMatrix3IdEleERKS0_ @4342
    _ZNK9moMatrix3IdEltERKS0_ @4343
    _ZNK9moMatrix3IdEmiERKS0_ @4344
    _ZNK9moMatrix3IdEmlERK9moVector3IdE @4345
    _ZNK9moMatrix3IdEmlERKS0_ @4346
    _ZNK9moMatrix3IdEmlEd @4347
    _ZNK9moMatrix3IdEneERKS0_ @4348
    _ZNK9moMatrix3IdEngEv @4349
    _ZNK9moMatrix3IdEplERKS0_ @4350
    _ZNK9moMatrix3IfE11DeterminantEv @4351
    _ZNK9moMatrix3IfE11ToAxisAngleER9moVector3IfERf @4352
    _ZNK9moMatrix3IfE13CompareArraysERKS0_ @4353
    _ZNK9moMatrix3IfE13DiagonalTimesERK9moVector3IfE @4354
    _ZNK9moMatrix3IfE13TimesDiagonalERK9moVector3IfE @4355
    _ZNK9moMatrix3IfE14GetColumnMajorEPf @4356
    _ZNK9moMatrix3IfE14TimesTransposeERKS0_ @4357
    _ZNK9moMatrix3IfE14TransposeTimesERKS0_ @4358
    _ZNK9moMatrix3IfE16QDUDecompositionERS0_S1_S1_ @4359
    _ZNK9moMatrix3IfE16ToEulerAnglesXYZERfS1_S1_ @4360
    _ZNK9moMatrix3IfE16ToEulerAnglesXZYERfS1_S1_ @4361
    _ZNK9moMatrix3IfE16ToEulerAnglesYXZERfS1_S1_ @4362
    _ZNK9moMatrix3IfE16ToEulerAnglesYZXERfS1_S1_ @4363
    _ZNK9moMatrix3IfE16ToEulerAnglesZXYERfS1_S1_ @4364
    _ZNK9moMatrix3IfE16ToEulerAnglesZYXERfS1_S1_ @4365
    _ZNK9moMatrix3IfE18EigenDecompositionERS0_S1_ @4366
    _ZNK9moMatrix3IfE26SingularValueDecompositionERS0_S1_S1_ @4367
    _ZNK9moMatrix3IfE5QFormERK9moVector3IfES4_ @4368
    _ZNK9moMatrix3IfE6GetRowEi @4369
    _ZNK9moMatrix3IfE7AdjointEv @4370
    _ZNK9moMatrix3IfE7InverseEv @4371
    _ZNK9moMatrix3IfE9GetColumnEi @4372
    _ZNK9moMatrix3IfE9TransposeEv @4373
    _ZNK9moMatrix3IfEclEii @4374
    _ZNK9moMatrix3IfEcvPKfEv @4375
    _ZNK9moMatrix3IfEdvEf @4376
    _ZNK9moMatrix3IfEeqERKS0_ @4377
    _ZNK9moMatrix3IfEgeERKS0_ @4378
    _ZNK9moMatrix3IfEgtERKS0_ @4379
    _ZNK9moMatrix3IfEixEi @4380
    _ZNK9moMatrix3IfEleERKS0_ @4381
    _ZNK9moMatrix3IfEltERKS0_ @4382
    _ZNK9moMatrix3IfEmiERKS0_ @4383
    _ZNK9moMatrix3IfEmlERK9moVector3IfE @4384
    _ZNK9moMatrix3IfEmlERKS0_ @4385
    _ZNK9moMatrix3IfEmlEf @4386
    _ZNK9moMatrix3IfEneERKS0_ @4387
    _ZNK9moMatrix3IfEngEv @4388
    _ZNK9moMatrix3IfEplERKS0_ @4389
    _ZNK9moVector2IdE13CompareArraysERKS0_ @4390
    _ZNK9moVector2IdE13SquaredLengthEv @4391
    _ZNK9moVector2IdE15GetBarycentricsERKS0_S2_S2_Pd @4392
    _ZNK9moVector2IdE1XEv @4393
    _ZNK9moVector2IdE1YEv @4394
    _ZNK9moVector2IdE3DotERKS0_ @4395
    _ZNK9moVector2IdE4PerpEv @4396
    _ZNK9moVector2IdE6LengthEv @4397
    _ZNK9moVector2IdE7DotPerpERKS0_ @4398
    _ZNK9moVector2IdE8UnitPerpEv @4399
    _ZNK9moVector2IdEcvPKdEv @4400
    _ZNK9moVector2IdEdvEd @4401
    _ZNK9moVector2IdEeqERKS0_ @4402
    _ZNK9moVector2IdEgeERKS0_ @4403
    _ZNK9moVector2IdEgtERKS0_ @4404
    _ZNK9moVector2IdEixEi @4405
    _ZNK9moVector2IdEleERKS0_ @4406
    _ZNK9moVector2IdEltERKS0_ @4407
    _ZNK9moVector2IdEmiERKS0_ @4408
    _ZNK9moVector2IdEmlEd @4409
    _ZNK9moVector2IdEneERKS0_ @4410
    _ZNK9moVector2IdEngEv @4411
    _ZNK9moVector2IdEplERKS0_ @4412
    _ZNK9moVector2IfE13CompareArraysERKS0_ @4413
    _ZNK9moVector2IfE13SquaredLengthEv @4414
    _ZNK9moVector2IfE15GetBarycentricsERKS0_S2_S2_Pf @4415
    _ZNK9moVector2IfE1XEv @4416
    _ZNK9moVector2IfE1YEv @4417
    _ZNK9moVector2IfE3DotERKS0_ @4418
    _ZNK9moVector2IfE4PerpEv @4419
    _ZNK9moVector2IfE6LengthEv @4420
    _ZNK9moVector2IfE7DotPerpERKS0_ @4421
    _ZNK9moVector2IfE8UnitPerpEv @4422
    _ZNK9moVector2IfEcvPKfEv @4423
    _ZNK9moVector2IfEdvEf @4424
    _ZNK9moVector2IfEeqERKS0_ @4425
    _ZNK9moVector2IfEgeERKS0_ @4426
    _ZNK9moVector2IfEgtERKS0_ @4427
    _ZNK9moVector2IfEixEi @4428
    _ZNK9moVector2IfEleERKS0_ @4429
    _ZNK9moVector2IfEltERKS0_ @4430
    _ZNK9moVector2IfEmiERKS0_ @4431
    _ZNK9moVector2IfEmlEf @4432
    _ZNK9moVector2IfEneERKS0_ @4433
    _ZNK9moVector2IfEngEv @4434
    _ZNK9moVector2IfEplERKS0_ @4435
    _ZNK9moVector3IdE13CompareArraysERKS0_ @4436
    _ZNK9moVector3IdE13SquaredLengthEv @4437
    _ZNK9moVector3IdE15GetBarycentricsERKS0_S2_S2_S2_Pd @4438
    _ZNK9moVector3IdE1XEv @4439
    _ZNK9moVector3IdE1YEv @4440
    _ZNK9moVector3IdE1ZEv @4441
    _ZNK9moVector3IdE3DotERKS0_ @4442
    _ZNK9moVector3IdE5CrossERKS0_ @4443
    _ZNK9moVector3IdE6LengthEv @4444
    _ZNK9moVector3IdE9UnitCrossERKS0_ @4445
    _ZNK9moVector3IdEcvPKdEv @4446
    _ZNK9moVector3IdEdvEd @4447
    _ZNK9moVector3IdEeqERKS0_ @4448
    _ZNK9moVector3IdEgeERKS0_ @4449
    _ZNK9moVector3IdEgtERKS0_ @4450
    _ZNK9moVector3IdEixEi @4451
    _ZNK9moVector3IdEleERKS0_ @4452
    _ZNK9moVector3IdEltERKS0_ @4453
    _ZNK9moVector3IdEmiERKS0_ @4454
    _ZNK9moVector3IdEmlEd @4455
    _ZNK9moVector3IdEneERKS0_ @4456
    _ZNK9moVector3IdEngEv @4457
    _ZNK9moVector3IdEplERKS0_ @4458
    _ZNK9moVector3IfE13CompareArraysERKS0_ @4459
    _ZNK9moVector3IfE13SquaredLengthEv @4460
    _ZNK9moVector3IfE15GetBarycentricsERKS0_S2_S2_S2_Pf @4461
    _ZNK9moVector3IfE1XEv @4462
    _ZNK9moVector3IfE1YEv @4463
    _ZNK9moVector3IfE1ZEv @4464
    _ZNK9moVector3IfE3DotERKS0_ @4465
    _ZNK9moVector3IfE5CrossERKS0_ @4466
    _ZNK9moVector3IfE6LengthEv @4467
    _ZNK9moVector3IfE9UnitCrossERKS0_ @4468
    _ZNK9moVector3IfEcvPKfEv @4469
    _ZNK9moVector3IfEdvEf @4470
    _ZNK9moVector3IfEeqERKS0_ @4471
    _ZNK9moVector3IfEgeERKS0_ @4472
    _ZNK9moVector3IfEgtERKS0_ @4473
    _ZNK9moVector3IfEixEi @4474
    _ZNK9moVector3IfEleERKS0_ @4475
    _ZNK9moVector3IfEltERKS0_ @4476
    _ZNK9moVector3IfEmiERKS0_ @4477
    _ZNK9moVector3IfEmlEf @4478
    _ZNK9moVector3IfEneERKS0_ @4479
    _ZNK9moVector3IfEngEv @4480
    _ZNK9moVector3IfEplERKS0_ @4481
    _ZNK9moVector4IdE13CompareArraysERKS0_ @4482
    _ZNK9moVector4IdE13SquaredLengthEv @4483
    _ZNK9moVector4IdE1WEv @4484
    _ZNK9moVector4IdE1XEv @4485
    _ZNK9moVector4IdE1YEv @4486
    _ZNK9moVector4IdE1ZEv @4487
    _ZNK9moVector4IdE3DotERKS0_ @4488
    _ZNK9moVector4IdE6LengthEv @4489
    _ZNK9moVector4IdEcvPKdEv @4490
    _ZNK9moVector4IdEdvEd @4491
    _ZNK9moVector4IdEeqERKS0_ @4492
    _ZNK9moVector4IdEgeERKS0_ @4493
    _ZNK9moVector4IdEgtERKS0_ @4494
    _ZNK9moVector4IdEixEi @4495
    _ZNK9moVector4IdEleERKS0_ @4496
    _ZNK9moVector4IdEltERKS0_ @4497
    _ZNK9moVector4IdEmiERKS0_ @4498
    _ZNK9moVector4IdEmlEd @4499
    _ZNK9moVector4IdEneERKS0_ @4500
    _ZNK9moVector4IdEngEv @4501
    _ZNK9moVector4IdEplERKS0_ @4502
    _ZNK9moVector4IfE13CompareArraysERKS0_ @4503
    _ZNK9moVector4IfE13SquaredLengthEv @4504
    _ZNK9moVector4IfE1WEv @4505
    _ZNK9moVector4IfE1XEv @4506
    _ZNK9moVector4IfE1YEv @4507
    _ZNK9moVector4IfE1ZEv @4508
    _ZNK9moVector4IfE3DotERKS0_ @4509
    _ZNK9moVector4IfE6LengthEv @4510
    _ZNK9moVector4IfEcvPKfEv @4511
    _ZNK9moVector4IfEdvEf @4512
    _ZNK9moVector4IfEeqERKS0_ @4513
    _ZNK9moVector4IfEgeERKS0_ @4514
    _ZNK9moVector4IfEgtERKS0_ @4515
    _ZNK9moVector4IfEixEi @4516
    _ZNK9moVector4IfEleERKS0_ @4517
    _ZNK9moVector4IfEltERKS0_ @4518
    _ZNK9moVector4IfEmiERKS0_ @4519
    _ZNK9moVector4IfEmlEf @4520
    _ZNK9moVector4IfEneERKS0_ @4521
    _ZNK9moVector4IfEngEv @4522
    _ZNK9moVector4IfEplERKS0_ @4523
    _ZTV10mo3dWidget @4524 DATA
    _ZTV10moAbstract @4525 DATA
    _ZTV10moFBOArray @4526 DATA
    _ZTV10moIODevice @4527 DATA
    _ZTV10moIntArray @4528 DATA
    _ZTV10moMobIndex @4529 DATA
    _ZTV10moResource @4530 DATA
    _ZTV10moShaderCG @4531 DATA
    _ZTV10moVideoOut @4532 DATA
    _ZTV11moBoolArray @4533 DATA
    _ZTV11moConnector @4534 DATA
    _ZTV11moDirectory @4535 DATA
    _ZTV11moEventList @4536 DATA
    _ZTV11moFBManager @4537 DATA
    _ZTV11moFileArray @4538 DATA
    _ZTV11moGLManager @4539 DATA
    _ZTV11moGuiObject @4540 DATA
    _ZTV11moMinimize1IdE @4541 DATA
    _ZTV11moMinimize1IfE @4542 DATA
    _ZTV11moNetObject @4543 DATA
    _ZTV11moNetServer @4544 DATA
    _ZTV11moPreConfig @4545 DATA
    _ZTV11moPreEffect @4546 DATA
    _ZTV11moPrePlugin @4547 DATA
    _ZTV11moResources @4548 DATA
    _ZTV11moSceneNode @4549 DATA
    _ZTV11moTextArray @4550 DATA
    _ZTV11moValueBase @4551 DATA
    _ZTV12moConnection @4552 DATA
    _ZTV12moConnectors @4553 DATA
    _ZTV12moFloatArray @4554 DATA
    _ZTV12moGUIManager @4555 DATA
    _ZTV12moIntegrate1IdE @4556 DATA
    _ZTV12moIntegrate1IfE @4557 DATA
    _ZTV12moLiveSystem @4558 DATA
    _ZTV12moNetManager @4559 DATA
    _ZTV12moNetObjects @4560 DATA
    _ZTV12moPostEffect @4561 DATA
    _ZTV12moPreConfigs @4562 DATA
    _ZTV12moQuaternionIdE @4563 DATA
    _ZTV12moQuaternionIfE @4564 DATA
    _ZTV12moShaderGLSL @4565 DATA
    _ZTV12moSoundArray @4566 DATA
    _ZTV12moValueBases @4567 DATA
    _ZTV12moVideoFrame @4568 DATA
    _ZTV12moVideoGraph @4569 DATA
    _ZTV13moBucketsPool @4570 DATA
    _ZTV13moColorMatrix @4571 DATA
    _ZTV13moConnections @4572 DATA
    _ZTV13moDataManager @4573 DATA
    _ZTV13moDataSession @4574 DATA
    _ZTV13moEffectState @4575 DATA
    _ZTV13moEventPacket @4576 DATA
    _ZTV13moFileManager @4577 DATA
    _ZTV13moFontManager @4578 DATA
    _ZTV13moGsFramework @4579 DATA
    _ZTV13moLiveSystems @4580 DATA
    _ZTV13moLuaDebugger @4581 DATA
    _ZTV13moMathManager @4582 DATA
    _ZTV13moPolynomial1IdE @4583 DATA
    _ZTV13moPolynomial1IfE @4584 DATA
    _ZTV13moRenderClips @4585 DATA
    _ZTV13moSceneEffect @4586 DATA
    _ZTV13moShaderArray @4587 DATA
    _ZTV13moSoundBuffer @4588 DATA
    _ZTV13moSoundEffect @4589 DATA
    _ZTV13moTimeManager @4590 DATA
    _ZTV13moVideoBuffer @4591 DATA
    _ZTV13moVideoFrames @4592 DATA
    _ZTV14moConsoleState @4593 DATA
    _ZTV14moDataMessages @4594 DATA
    _ZTV14moEffectsArray @4595 DATA
    _ZTV14moMasterEffect @4596 DATA
    _ZTV14moMasterPlugin @4597 DATA
    _ZTV14moMathFunction @4598 DATA
    _ZTV14moMoldeoObject @4599 DATA
    _ZTV14moParamIndexes @4600 DATA
    _ZTV14moPluginsArray @4601 DATA
    _ZTV14moPresetParams @4602 DATA
    _ZTV14moSingleCurve2IdE @4603 DATA
    _ZTV14moSingleCurve2IfE @4604 DATA
    _ZTV14moSingleCurve3IdE @4605 DATA
    _ZTV14moSingleCurve3IfE @4606 DATA
    _ZTV14moSoundManager @4607 DATA
    _ZTV14moTextureArray @4608 DATA
    _ZTV14moTextureIndex @4609 DATA
    _ZTV14moTexturedGrid @4610 DATA
    _ZTV14moValueIndexes @4611 DATA
    _ZTV14moVideoBuffers @4612 DATA
    _ZTV14moVideoManager @4613 DATA
    _ZTV15moDBandedMatrixIdE @4614 DATA
    _ZTV15moDBandedMatrixIfE @4615 DATA
    _ZTV15moEffectFactory @4616 DATA
    _ZTV15moEffectManager @4617 DATA
    _ZTV15moFilterManager @4618 DATA
    _ZTV15moMobDefinition @4619 DATA
    _ZTV15moMoldeoObjects @4620 DATA
    _ZTV15moNetConnection @4621 DATA
    _ZTV15moRenderManager @4622 DATA
    _ZTV15moScriptManager @4623 DATA
    _ZTV15moShaderManager @4624 DATA
    _ZTV15moTextureBuffer @4625 DATA
    _ZTV15moTextureFilter @4626 DATA
    _ZTV15moTextureFrames @4627 DATA
    _ZTV15moTextureMemory @4628 DATA
    _ZTV15moTimerAbsolute @4629 DATA
    _ZTV15moVector2dArray @4630 DATA
    _ZTV15moVector2fArray @4631 DATA
    _ZTV15moVector3dArray @4632 DATA
    _ZTV15moVector3fArray @4633 DATA
    _ZTV15moVector4dArray @4634 DATA
    _ZTV15moVector4fArray @4635 DATA
    _ZTV16mo3dModelManager @4636 DATA
    _ZTV16moCaptureDevices @4637 DATA
    _ZTV16moDecoderManager @4638 DATA
    _ZTV16moDeviceCodeList @4639 DATA
    _ZTV16moDirectoryArray @4640 DATA
    _ZTV16moDisplayOutputs @4641 DATA
    _ZTV16moGuiObjectArray @4642 DATA
    _ZTV16moIODevicePlugin @4643 DATA
    _ZTV16moIODevicesArray @4644 DATA
    _ZTV16moLiveSystemPtrs @4645 DATA
    _ZTV16moMultipleCurve2IdE @4646 DATA
    _ZTV16moMultipleCurve2IfE @4647 DATA
    _ZTV16moMultipleCurve3IdE @4648 DATA
    _ZTV16moMultipleCurve3IfE @4649 DATA
    _ZTV16moNetConnections @4650 DATA
    _ZTV16moParserFunction @4651 DATA
    _ZTV16moResourcePlugin @4652 DATA
    _ZTV16moSequenceEffect @4653 DATA
    _ZTV16moTextureBuffers @4654 DATA
    _ZTV16moTextureManager @4655 DATA
    _ZTV16moVideoFramework @4656 DATA
    _ZTV17moDataSessionKeys @4657 DATA
    _ZTV17moHueSatIntMatrix @4658 DATA
    _ZTV17moIODeviceFactory @4659 DATA
    _ZTV17moIODeviceManager @4660 DATA
    _ZTV17moLuaRestoreStack @4661 DATA
    _ZTV17moParamDefinition @4662 DATA
    _ZTV17moPreEffectsArray @4663 DATA
    _ZTV17moPrePluginsArray @4664 DATA
    _ZTV17moResourceFactory @4665 DATA
    _ZTV17moResourceManager @4666 DATA
    _ZTV17moTautInterpolant @4667 DATA
    _ZTV17moTextureAnimated @4668 DATA
    _ZTV17moTextureMultiple @4669 DATA
    _ZTV17moValueDefinition @4670 DATA
    _ZTV17moVideoBufferPath @4671 DATA
    _ZTV18mo3DModelSceneNode @4672 DATA
    _ZTV18moBrightContMatrix @4673 DATA
    _ZTV18moConfigDefinition @4674 DATA
    _ZTV18moCubicInterpolant @4675 DATA
    _ZTV18moEventPacketArray @4676 DATA
    _ZTV18moParamDefinitions @4677 DATA
    _ZTV18moPluginDefinition @4678 DATA
    _ZTV18moPostEffectsArray @4679 DATA
    _ZTV18moPostPluginsArray @4680 DATA
    _ZTV18moPreEffectFactory @4681 DATA
    _ZTV18moPreconfigIndexes @4682 DATA
    _ZTV18moSoundBufferArray @4683 DATA
    _ZTV18moSoundEffectArray @4684 DATA
    _ZTV18moVideoBufferPaths @4685 DATA
    _ZTV19mo3dModelManagerRef @4686 DATA
    _ZTV19moDataSessionConfig @4687 DATA
    _ZTV19moLuaParserFunction @4688 DATA
    _ZTV19moLuaVirtualMachine @4689 DATA
    _ZTV19moMathFunctionArray @4690 DATA
    _ZTV19moMathFunctionIndex @4691 DATA
    _ZTV19moMathVariableArray @4692 DATA
    _ZTV19moPluginDefinitions @4693 DATA
    _ZTV19moPostEffectFactory @4694 DATA
    _ZTV19moTrackerSystemData @4695 DATA
    _ZTV20moMasterEffectsArray @4696 DATA
    _ZTV20moMasterPluginsArray @4697 DATA
    _ZTV20moTextureFilterArray @4698 DATA
    _ZTV20moTextureFilterIndex @4699 DATA
    _ZTV21moCircularVideoBuffer @4700 DATA
    _ZTV21moMasterEffectFactory @4701 DATA
    _ZTV21moMathVariableFactory @4702 DATA
    _ZTV21moTrackerFeatureArray @4703 DATA
    _ZTV22moCircularVideoBuffers @4704 DATA
    _ZTV22moDataSessionEventKeys @4705 DATA
    _ZTV22moIODevicePluginsArray @4706 DATA
    _ZTV22moNetConnectionManager @4707 DATA
    _ZTV22moResourcePluginsArray @4708 DATA
    _ZTV4moP5 @4709 DATA
    _ZTV5moFBO @4710 DATA
    _ZTV6moData @4711 DATA
    _ZTV6moFile @4712 DATA
    _ZTV6moFont @4713 DATA
    _ZTV7moDatas @4714 DATA
    _ZTV7moDebug @4715 DATA
    _ZTV7moEvent @4716 DATA
    _ZTV7moFonts @4717 DATA
    _ZTV7moInlet @4718 DATA
    _ZTV7moLuaP5 @4719 DATA
    _ZTV7moMovie @4720 DATA
    _ZTV7moParam @4721 DATA
    _ZTV7moSound @4722 DATA
    _ZTV7moText0 @4723 DATA
    _ZTV7moTimer @4724 DATA
    _ZTV7moValue @4725 DATA
    _ZTV8moBucket @4726 DATA
    _ZTV8moConfig @4727 DATA
    _ZTV8moCoords @4728 DATA
    _ZTV8moCurve2IdE @4729 DATA
    _ZTV8moCurve2IfE @4730 DATA
    _ZTV8moCurve3IdE @4731 DATA
    _ZTV8moCurve3IfE @4732 DATA
    _ZTV8moEffect @4733 DATA
    _ZTV8moInlets @4734 DATA
    _ZTV8moMotion @4735 DATA
    _ZTV8moOutlet @4736 DATA
    _ZTV8moParams @4737 DATA
    _ZTV8moPlugin @4738 DATA
    _ZTV8moScript @4739 DATA
    _ZTV8moShader @4740 DATA
    _ZTV8moThread @4741 DATA
    _ZTV8moTimers @4742 DATA
    _ZTV8moValues @4743 DATA
    _ZTV8moWidget @4744 DATA
    _ZTV8moWindow @4745 DATA
    _ZTV9moConsole @4746 DATA
    _ZTV9moDMatrixIdE @4747 DATA
    _ZTV9moDMatrixIfE @4748 DATA
    _ZTV9moDVectorIdE @4749 DATA
    _ZTV9moDVectorIfE @4750 DATA
    _ZTV9moGsGraph @4751 DATA
    _ZTV9moLuaThis @4752 DATA
    _ZTV9moMatrix2IdE @4753 DATA
    _ZTV9moMatrix2IfE @4754 DATA
    _ZTV9moMatrix3IdE @4755 DATA
    _ZTV9moMatrix3IfE @4756 DATA
    _ZTV9moMessage @4757 DATA
    _ZTV9moOutlets @4758 DATA
    _ZTV9moPresets @4759 DATA
    _ZTV9moTexture @4760 DATA
    _ZTV9moVector2IdE @4761 DATA
    _ZTV9moVector2IfE @4762 DATA
    _ZTV9moVector3IdE @4763 DATA
    _ZTV9moVector3IfE @4764 DATA
    _ZTV9moVector4IdE @4765 DATA
    _ZTV9moVector4IfE @4766 DATA
    _ZTV9moVideoIn @4767 DATA
    _ZThn12_N10mo3dWidget11InteractionEv @4768
    _ZThn12_N10mo3dWidget6UpdateEv @4769
    _ZThn12_N10mo3dWidgetD0Ev @4770
    _ZThn12_N10mo3dWidgetD1Ev @4771
    _ZThn8_N10moIODeviceD0Ev @4772
    _ZThn8_N10moIODeviceD1Ev @4773
    _ZThn8_N10moResourceD0Ev @4774
    _ZThn8_N10moResourceD1Ev @4775
    _ZThn8_N11moFBManagerD0Ev @4776
    _ZThn8_N11moFBManagerD1Ev @4777
    _ZThn8_N11moGLManagerD0Ev @4778
    _ZThn8_N11moGLManagerD1Ev @4779
    _ZThn8_N11moPreEffectD0Ev @4780
    _ZThn8_N11moPreEffectD1Ev @4781
    _ZThn8_N12moGUIManagerD0Ev @4782
    _ZThn8_N12moGUIManagerD1Ev @4783
    _ZThn8_N12moNetManagerD0Ev @4784
    _ZThn8_N12moNetManagerD1Ev @4785
    _ZThn8_N12moPostEffectD0Ev @4786
    _ZThn8_N12moPostEffectD1Ev @4787
    _ZThn8_N13moDataManagerD0Ev @4788
    _ZThn8_N13moDataManagerD1Ev @4789
    _ZThn8_N13moFileManagerD0Ev @4790
    _ZThn8_N13moFileManagerD1Ev @4791
    _ZThn8_N13moFontManagerD0Ev @4792
    _ZThn8_N13moFontManagerD1Ev @4793
    _ZThn8_N13moMathManagerD0Ev @4794
    _ZThn8_N13moMathManagerD1Ev @4795
    _ZThn8_N13moSceneEffectD0Ev @4796
    _ZThn8_N13moSceneEffectD1Ev @4797
    _ZThn8_N13moTimeManagerD0Ev @4798
    _ZThn8_N13moTimeManagerD1Ev @4799
    _ZThn8_N14moMasterEffectD0Ev @4800
    _ZThn8_N14moMasterEffectD1Ev @4801
    _ZThn8_N14moMoldeoObject13HandleReturnsER19moLuaVirtualMachinePKc @4802
    _ZThn8_N14moMoldeoObject13ScriptCallingER19moLuaVirtualMachinei @4803
    _ZThn8_N14moMoldeoObjectD0Ev @4804
    _ZThn8_N14moMoldeoObjectD1Ev @4805
    _ZThn8_N14moSoundManagerD0Ev @4806
    _ZThn8_N14moSoundManagerD1Ev @4807
    _ZThn8_N14moVideoManagerD0Ev @4808
    _ZThn8_N14moVideoManagerD1Ev @4809
    _ZThn8_N15moFilterManagerD0Ev @4810
    _ZThn8_N15moFilterManagerD1Ev @4811
    _ZThn8_N15moRenderManagerD0Ev @4812
    _ZThn8_N15moRenderManagerD1Ev @4813
    _ZThn8_N15moScriptManagerD0Ev @4814
    _ZThn8_N15moScriptManagerD1Ev @4815
    _ZThn8_N15moShaderManagerD0Ev @4816
    _ZThn8_N15moShaderManagerD1Ev @4817
    _ZThn8_N16mo3dModelManagerD0Ev @4818
    _ZThn8_N16mo3dModelManagerD1Ev @4819
    _ZThn8_N16moDecoderManagerD0Ev @4820
    _ZThn8_N16moDecoderManagerD1Ev @4821
    _ZThn8_N16moSequenceEffectD0Ev @4822
    _ZThn8_N16moSequenceEffectD1Ev @4823
    _ZThn8_N16moTextureManagerD0Ev @4824
    _ZThn8_N16moTextureManagerD1Ev @4825
    _ZThn8_N8moEffectD0Ev @4826
    _ZThn8_N8moEffectD1Ev @4827
    _ZThn8_N9moConsole13HandleReturnsER19moLuaVirtualMachinePKc @4828
    _ZThn8_N9moConsole13ScriptCallingER19moLuaVirtualMachinei @4829
    _ZThn8_N9moConsoleD0Ev @4830
    _ZThn8_N9moConsoleD1Ev @4831
    _ZplPcR7moText0 @4832
    _ZplR7moText0Pc @4833
    luaL_addlstring @4834
    luaL_addstring @4835
    luaL_addvalue @4836
    luaL_argerror @4837
    luaL_buffinit @4838
    luaL_callmeta @4839
    luaL_checkany @4840
    luaL_checkinteger @4841
    luaL_checklstring @4842
    luaL_checknumber @4843
    luaL_checkoption @4844
    luaL_checkstack @4845
    luaL_checktype @4846
    luaL_checkudata @4847
    luaL_error @4848
    luaL_findtable @4849
    luaL_getmetafield @4850
    luaL_gsub @4851
    luaL_loadbuffer @4852
    luaL_loadfile @4853
    luaL_loadstring @4854
    luaL_newmetatable @4855
    luaL_newstate @4856
    luaL_openlib @4857
    luaL_openlibs @4858
    luaL_optinteger @4859
    luaL_optlstring @4860
    luaL_optnumber @4861
    luaL_prepbuffer @4862
    luaL_pushresult @4863
    luaL_ref @4864
    luaL_register @4865
    luaL_typerror @4866
    luaL_unref @4867
    luaL_where @4868
    lua_atpanic @4869
    lua_call @4870
    lua_checkstack @4871
    lua_close @4872
    lua_concat @4873
    lua_cpcall @4874
    lua_createtable @4875
    lua_dump @4876
    lua_equal @4877
    lua_error @4878
    lua_gc @4879
    lua_getallocf @4880
    lua_getfenv @4881
    lua_getfield @4882
    lua_gethook @4883
    lua_gethookcount @4884
    lua_gethookmask @4885
    lua_getinfo @4886
    lua_getlocal @4887
    lua_getmetatable @4888
    lua_getstack @4889
    lua_gettable @4890
    lua_gettop @4891
    lua_getupvalue @4892
    lua_insert @4893
    lua_iscfunction @4894
    lua_isnumber @4895
    lua_isstring @4896
    lua_isuserdata @4897
    lua_lessthan @4898
    lua_load @4899
    lua_newstate @4900
    lua_newthread @4901
    lua_newuserdata @4902
    lua_next @4903
    lua_objlen @4904
    lua_pcall @4905
    lua_pushboolean @4906
    lua_pushcclosure @4907
    lua_pushfstring @4908
    lua_pushinteger @4909
    lua_pushlightuserdata @4910
    lua_pushlstring @4911
    lua_pushnil @4912
    lua_pushnumber @4913
    lua_pushstring @4914
    lua_pushthread @4915
    lua_pushvalue @4916
    lua_pushvfstring @4917
    lua_rawequal @4918
    lua_rawget @4919
    lua_rawgeti @4920
    lua_rawset @4921
    lua_rawseti @4922
    lua_remove @4923
    lua_replace @4924
    lua_resume @4925
    lua_setallocf @4926
    lua_setfenv @4927
    lua_setfield @4928
    lua_sethook @4929
    lua_setlevel @4930
    lua_setlocal @4931
    lua_setmetatable @4932
    lua_settable @4933
    lua_settop @4934
    lua_setupvalue @4935
    lua_status @4936
    lua_toboolean @4937
    lua_tocfunction @4938
    lua_tointeger @4939
    lua_tolstring @4940
    lua_tonumber @4941
    lua_topointer @4942
    lua_tothread @4943
    lua_touserdata @4944
    lua_type @4945
    lua_typename @4946
    lua_xmove @4947
    lua_yield @4948
    luaopen_base @4949
    luaopen_debug @4950
    luaopen_io @4951
    luaopen_math @4952
    luaopen_os @4953
    luaopen_package @4954
    luaopen_string @4955
    luaopen_table @4956
